EXPORTS
 "_Z10hesse_bekkN4arma3MatIdEES1_"
 "_Z10score_bekkRKN4arma3MatIdEERS1_"
 "_Z10sigma_bekkRN4arma3MatIdEES2_S2_S2_"
 "_Z10valid_bekkRN4arma3MatIdEES2_S2_"
 "_Z12loglike_bekkRKN4arma3ColIdEERKNS_3MatIdEE"
 "_Z14bhh_asymm_bekkRN4arma3MatIdEERKS1_RiRdS2_"
 "_Z15commutation_matRKi"
 "_Z15duplication_matRKi"
 "_Z15elimination_matRKi"
 "_Z16hesse_asymm_bekkN4arma3MatIdEES1_RS1_"
 "_Z16score_asymm_bekkRKN4arma3MatIdEERS1_S4_"
 "_Z16sigma_bekk_asymmRN4arma3MatIdEES2_S2_S2_S2_S1_"
 "_Z16valid_asymm_bekkRN4arma3MatIdEES2_S2_S2_S1_S1_"
 "_Z18loglike_asymm_bekkRKN4arma3ColIdEERKNS_3MatIdEERS5_"
 "_Z20valid_asymm_bekk_simRN4arma3MatIdEES2_S2_S2_dS1_"
 "_Z23random_grid_search_BEKKN4arma3MatIdEE"
 "_Z24expected_indicator_valueN4arma3MatIdEES1_"
 "_Z25eigen_value_decompositionRN4arma3MatIdEE"
 "_Z34random_grid_search_asymmetric_BEKKN4arma3MatIdEES1_"
 "_Z7inv_genRKN4arma3MatIdEE"
 "_Z8bhh_bekkRN4arma3MatIdEERKS1_RiRd"
 "_Z8set_seedd"
 "_ZGVN4arma5DatumIdE3nanE"
 "_ZGVZ7dataptrP7SEXPRECE3fun"
 "_ZGVZN4Rcpp20Rcpp_precious_removeEP7SEXPRECE3fun"
 "_ZGVZN4Rcpp22Rcpp_precious_preserveEP7SEXPRECE3fun"
 "_ZN10tinyformat6detail10formatImplERSoPKcPKNS0_9FormatArgEi"
 "_ZN10tinyformat6detail21streamStateFromFormatERSoRbRiPKcPKNS0_9FormatArgES3_i"
 "_ZN10tinyformat6detail9FormatArg10formatImplIPKcEEvRSoS4_S4_iPKv"
 "_ZN10tinyformat6detail9FormatArg9toIntImplIPKcEEiPKv"
 "_ZN10tinyformat6formatIJEEENSt7__cxx1112basic_stringIcSt11char_traitsIcESaIcEEEPKcDpRKT_"
 "_ZN10tinyformat6formatIJPKcEEENSt7__cxx1112basic_stringIcSt11char_traitsIcESaIcEEES2_DpRKT_"
 "_ZN4Rcpp10RstreambufILb0EE4syncEv"
 "_ZN4Rcpp10RstreambufILb0EE6xsputnEPKcx"
 "_ZN4Rcpp10RstreambufILb0EE8overflowEi"
 "_ZN4Rcpp10RstreambufILb0EED0Ev"
 "_ZN4Rcpp10RstreambufILb0EED1Ev"
 "_ZN4Rcpp10RstreambufILb1EE4syncEv"
 "_ZN4Rcpp10RstreambufILb1EE6xsputnEPKcx"
 "_ZN4Rcpp10RstreambufILb1EE8overflowEi"
 "_ZN4Rcpp10RstreambufILb1EED0Ev"
 "_ZN4Rcpp10RstreambufILb1EED1Ev"
 "_ZN4Rcpp10eval_errorD0Ev"
 "_ZN4Rcpp10eval_errorD1Ev"
 "_ZN4Rcpp13RcppArmadillo9arma_wrapIN4arma3ColIdEEEEP7SEXPRECRKT_RKNS_9DimensionE"
 "_ZN4Rcpp13RcppArmadillo9arma_wrapIN4arma3MatIdEEEEP7SEXPRECRKT_RKNS_9DimensionE"
 "_ZN4Rcpp14not_compatibleC1IJPKcEEES3_DpOT_"
 "_ZN4Rcpp14not_compatibleD0Ev"
 "_ZN4Rcpp14not_compatibleD1Ev"
 "_ZN4Rcpp16Environment_ImplINS_15PreserveStorageEEC1ERKNSt7__cxx1112basic_stringIcSt11char_traitsIcESaIcEEE"
 "_ZN4Rcpp20AttributeProxyPolicyINS_12RObject_ImplINS_15PreserveStorageEEEE14AttributeProxyaSINS_9DimensionEEERS5_RKT_"
 "_ZN4Rcpp20Rcpp_precious_removeEP7SEXPREC"
 "_ZN4Rcpp4growIdEEP7SEXPRECRKT_S2_"
 "_ZN4Rcpp4stopERKNSt7__cxx1112basic_stringIcSt11char_traitsIcESaIcEEE"
 "_ZN4Rcpp4stopIJEEEvPKcDpOT_"
 "_ZN4Rcpp4wrapIdEEP7SEXPRECRKN4arma3ColIT_EE"
 "_ZN4Rcpp4wrapIdEEP7SEXPRECRKN4arma3MatIT_EE"
 "_ZN4Rcpp6VectorILi19ENS_15PreserveStorageEE16create__dispatchINS_6traits12named_objectIN4arma3ColIdEEEENS5_IdEEEES2_NS4_17integral_constantIbLb1EEERKT_RKT0_"
 "_ZN4Rcpp6VectorILi19ENS_15PreserveStorageEE16create__dispatchINS_6traits12named_objectIN4arma3MatIdEEEES9_EES2_NS4_17integral_constantIbLb1EEERKT_RKT0_"
 "_ZN4Rcpp6VectorILi19ENS_15PreserveStorageEE16create__dispatchINS_6traits12named_objectIN4arma3MatIdEEEES9_NS5_IdEENS5_IiEENS5_INS6_3ColIdEEEEEES2_NS4_17integral_constantIbLb1EEERKT_RKT0_RKT1_RKT2_RKT3_"
 "_ZN4Rcpp8RostreamILb0EED0Ev"
 "_ZN4Rcpp8RostreamILb0EED1Ev"
 "_ZN4Rcpp8RostreamILb1EED0Ev"
 "_ZN4Rcpp8RostreamILb1EED1Ev"
 "_ZN4Rcpp9Rcpp_evalEP7SEXPRECS1_"
 "_ZN4Rcpp9exceptionD0Ev"
 "_ZN4Rcpp9exceptionD1Ev"
 "_ZN4arma10glue_times5applyIdLb0ELb0ELb0ELb0ENS_3MatIdEES3_S3_EEvRNS2_IT_EERKT4_RKT5_RKT6_S4_"
 "_ZN4arma10glue_times5applyIdLb0ELb0ELb0ELb1ELb1ENS_3MatIdEES3_S3_S3_EEvRNS2_IT_EERKT5_RKT6_RKT7_RKT8_S4_"
 "_ZN4arma10glue_times5applyIdLb0ELb0ELb0ELb1ENS_3MatIdEES3_S3_EEvRNS2_IT_EERKT4_RKT5_RKT6_S4_"
 "_ZN4arma10glue_times5applyIdLb0ELb0ELb0ENS_3MatIdEENS_3RowIdEEEEvRNS2_IT_EERKT3_RKT4_S6_"
 "_ZN4arma10glue_times5applyIdLb0ELb0ELb0ENS_3MatIdEES3_EEvRNS2_IT_EERKT3_RKT4_S4_"
 "_ZN4arma10glue_times5applyIdLb0ELb0ELb0ENS_3RowIdEENS_3MatIdEEEEvRNS4_IT_EERKT3_RKT4_S6_"
 "_ZN4arma10glue_times5applyIdLb0ELb0ELb1ENS_3MatIdEES3_EEvRNS2_IT_EERKT3_RKT4_S4_"
 "_ZN4arma10glue_times5applyIdLb0ELb1ELb0ELb0ELb1ENS_3MatIdEENS_3RowIdEES5_S3_EEvRNS2_IT_EERKT5_RKT6_RKT7_RKT8_S6_"
 "_ZN4arma10glue_times5applyIdLb0ELb1ELb0ELb0ENS_3MatIdEENS_3RowIdEES5_EEvRNS2_IT_EERKT4_RKT5_RKT6_S6_"
 "_ZN4arma10glue_times5applyIdLb0ELb1ELb0ENS_3MatIdEENS_3RowIdEEEEvRNS2_IT_EERKT3_RKT4_S6_"
 "_ZN4arma10glue_times5applyIdLb0ELb1ELb0ENS_3MatIdEES3_EEvRNS2_IT_EERKT3_RKT4_S4_"
 "_ZN4arma10glue_times5applyIdLb0ELb1ELb1ENS_3MatIdEES3_EEvRNS2_IT_EERKT3_RKT4_S4_"
 "_ZN4arma10glue_times5applyIdLb1ELb0ELb0ELb0ENS_3RowIdEES3_NS_3MatIdEEEEvRNS4_IT_EERKT4_RKT5_RKT6_S6_"
 "_ZN4arma10glue_times5applyIdLb1ELb0ELb0ENS_3MatIdEES3_EEvRNS2_IT_EERKT3_RKT4_S4_"
 "_ZN4arma10glue_times5applyIdLb1ELb0ELb0ENS_3RowIdEENS_3MatIdEEEEvRNS4_IT_EERKT3_RKT4_S6_"
 "_ZN4arma10glue_times5applyIdLb1ELb0ELb0ENS_3RowIdEES3_EEvRNS_3MatIT_EERKT3_RKT4_S5_"
 "_ZN4arma10glue_times5applyIdLb1ELb0ELb1ENS_3RowIdEES3_EEvRNS_3MatIT_EERKT3_RKT4_S5_"
 "_ZN4arma10glue_times5applyIdLb1ELb1ELb0ELb0ELb1ENS_3MatIdEENS_3RowIdEES5_S3_EEvRNS2_IT_EERKT5_RKT6_RKT7_RKT8_S6_"
 "_ZN4arma10glue_times5applyIdLb1ELb1ELb0ELb0ENS_3MatIdEENS_3RowIdEES5_EEvRNS2_IT_EERKT4_RKT5_RKT6_S6_"
 "_ZN4arma10join_horizIdNS_3MatIdEES2_S2_EENS1_IT_EERKNS_4BaseIS3_T0_EERKNS5_IS3_T1_EERKNS5_IS3_T2_EE"
 "_ZN4arma10join_horizIdNS_3MatIdEES2_S2_S2_EENS1_IT_EERKNS_4BaseIS3_T0_EERKNS5_IS3_T1_EERKNS5_IS3_T2_EERKNS5_IS3_T3_EE"
 "_ZN4arma10op_reshape5applyINS_11subview_colIdEEEEvRNS_3MatINT_9elem_typeEEERKNS_2OpIS5_S0_EE"
 "_ZN4arma10op_reshape5applyINS_11subview_rowIdEEEEvRNS_3MatINT_9elem_typeEEERKNS_2OpIS5_S0_EE"
 "_ZN4arma10op_reshape5applyINS_2OpINS_11subview_colIdEENS_9op_htransEEEEEvRNS_3MatINT_9elem_typeEEERKNS2_IS8_S0_EE"
 "_ZN4arma10op_reshape5applyINS_3MatIdEEEEvRNS2_INT_9elem_typeEEERKNS_2OpIS4_S0_EE"
 "_ZN4arma10op_reshape5applyINS_7subviewIdEEEEvRNS_3MatINT_9elem_typeEEERKNS_2OpIS5_S0_EE"
 "_ZN4arma10op_symmatl5applyINS_3MatIdEEEEvRNS2_INT_9elem_typeEEERKNS_2OpIS4_S0_EE"
 "_ZN4arma11syrk_helper35inplace_copy_upper_tri_to_lower_triIdEEvRNS_3MatIT_EE"
 "_ZN4arma12arma_rng_alt9randn_valEv"
 "_ZN4arma12sympd_helper18guess_sympd_workerIdEENS_10enable_if2IXsrNS_5is_cxIT_EE2noEbE6resultERKNS_3MatIS4_EE"
 "_ZN4arma13subview_elem1IdNS_3MatIjEEE7extractERNS1_IdEERKS3_"
 "_ZN4arma13subview_elem2IdNS_3MatIjEES2_E7extractERNS1_IdEERKS3_"
 "_ZN4arma14glue_join_cols13apply_noaliasINS_3MatIdEENS_4GlueIS3_S3_NS_10glue_timesEEEEEvRNS2_INT_9elem_typeEEERKNS_5ProxyIS7_EERKNSB_IT0_EE"
 "_ZN4arma14glue_join_cols5applyINS_3MatIdEENS_4GlueIS3_S3_NS_10glue_timesEEEEEvRNS2_INT_9elem_typeEEERKNS4_IS7_T0_S0_EE"
 "_ZN4arma14glue_join_rows13apply_noaliasINS_3GenINS_3MatIdEENS_9gen_zerosEEENS_12subview_colsIdEEEEvRNS3_INT_9elem_typeEEERKNS_5ProxyIS9_EERKNSD_IT0_EE"
 "_ZN4arma14glue_join_rows13apply_noaliasINS_3MatIdEENS_12subview_colsIdEEEEvRNS2_INT_9elem_typeEEERKNS_5ProxyIS6_EERKNSA_IT0_EE"
 "_ZN4arma14glue_join_rows13apply_noaliasINS_3MatIdEENS_3GenIS3_NS_9gen_zerosEEEEEvRNS2_INT_9elem_typeEEERKNS_5ProxyIS7_EERKNSB_IT0_EE"
 "_ZN4arma14glue_join_rows5applyINS_3GenINS_3MatIdEENS_9gen_zerosEEENS_12subview_colsIdEEEEvRNS3_INT_9elem_typeEEERKNS_4GlueIS9_T0_S0_EE"
 "_ZN4arma14glue_join_rows5applyINS_3MatIdEES3_EEvRNS2_INT_9elem_typeEEERKNS_4GlueIS4_T0_S0_EE"
 "_ZN4arma15gemm_emul_largeILb0ELb0ELb0ELb0EE5applyIdNS_3MatIdEES4_EEvRNS3_IT_EERKT0_RKT1_S5_S5_"
 "_ZN4arma15glue_times_diag5applyINS_3MatIdEENS_2OpINS_3ColIdEENS_10op_diagmatEEEEEvRNS2_INT_9elem_typeEEERKNS_4GlueIS9_T0_S0_EE"
 "_ZN4arma16gemm_emul_tinysqILb0ELb0ELb0EE5applyIdNS_3MatIdEES4_EEvRNS3_IT_EERKT0_RKT1_S5_S5_"
 "_ZN4arma16gemm_emul_tinysqILb0ELb1ELb0EE5applyIdNS_3MatIdEES4_EEvRNS3_IT_EERKT0_RKT1_S5_S5_"
 "_ZN4arma16gemv_emul_tinysqILb0ELb0ELb0EE5applyIdNS_3MatIdEEEEvPT_RKT0_PKS5_S5_S5_"
 "_ZN4arma16gemv_emul_tinysqILb0ELb0ELb0EE5applyIdNS_3RowIdEEEEvPT_RKT0_PKS5_S5_S5_"
 "_ZN4arma16gemv_emul_tinysqILb0ELb1ELb0EE5applyIdNS_3MatIdEEEEvPT_RKT0_PKS5_S5_S5_"
 "_ZN4arma16gemv_emul_tinysqILb0ELb1ELb0EE5applyIdNS_3RowIdEEEEvPT_RKT0_PKS5_S5_S5_"
 "_ZN4arma16gemv_emul_tinysqILb1ELb0ELb0EE5applyIdNS_3MatIdEEEEvPT_RKT0_PKS5_S5_S5_"
 "_ZN4arma16gemv_emul_tinysqILb1ELb0ELb0EE5applyIdNS_3RowIdEEEEvPT_RKT0_PKS5_S5_S5_"
 "_ZN4arma16gemv_emul_tinysqILb1ELb1ELb0EE5applyIdNS_3MatIdEEEEvPT_RKT0_PKS5_S5_S5_"
 "_ZN4arma16gemv_emul_tinysqILb1ELb1ELb0EE5applyIdNS_3RowIdEEEEvPT_RKT0_PKS5_S5_S5_"
 "_ZN4arma17accu_proxy_linearINS_8diagviewIdEEEENT_9elem_typeERKNS_5ProxyIS3_EE"
 "_ZN4arma18unwrap_check_mixedINS_3MatIjEEEC1IdEERKS2_RKNS1_IT_EE"
 "_ZN4arma18unwrap_check_mixedINS_3MatIjEEED1Ev"
 "_ZN4arma19Proxy_xtrans_vectorINS_2OpINS1_INS_3MatIdEENS_16op_vectorise_colEEENS_9op_htransEEEED2Ev"
 "_ZN4arma19glue_times_redirectILj4EE5applyINS_2OpINS_3MatIdEENS_10op_htrans2EEENS3_INS_11subview_rowIdEENS_9op_htransEEES9_S5_EEvRNS4_INT_9elem_typeEEERKNS_4GlueINSG_INSG_ISC_T0_NS_10glue_timesEEET1_SI_EET2_SI_EE"
 "_ZN4arma19glue_times_redirectILj4EE5applyINS_2OpINS_3MatIdEENS_9op_htransEEENS3_INS_11subview_rowIdEES6_EES9_S5_EEvRNS4_INT_9elem_typeEEERKNS_4GlueINSF_INSF_ISB_T0_NS_10glue_timesEEET1_SH_EET2_SH_EE"
 "_ZN4arma19glue_times_redirectILj4EE5applyINS_3MatIdEENS_2OpINS_11subview_rowIdEENS_9op_htransEEES7_S4_EEvRNS3_INT_9elem_typeEEERKNS_4GlueINSE_INSE_ISA_T0_NS_10glue_timesEEET1_SG_EET2_SG_EE"
 "_ZN4arma19glue_times_redirectILj4EE5applyINS_3MatIdEES4_S4_S4_EEvRNS3_INT_9elem_typeEEERKNS_4GlueINS9_INS9_IS5_T0_NS_10glue_timesEEET1_SB_EET2_SB_EE"
 "_ZN4arma19glue_times_redirectILj4EE5applyINS_3eOpINS_3MatIdEENS_16eop_scalar_timesEEENS_2OpINS_11subview_rowIdEENS_9op_htransEEESA_S5_EEvRNS4_INT_9elem_typeEEERKNS_4GlueINSH_INSH_ISD_T0_NS_10glue_timesEEET1_SJ_EET2_SJ_EE"
 "_ZN4arma19glue_times_redirectILj4EE5applyINS_3eOpINS_3MatIdEENS_16eop_scalar_timesEEES5_NS_4GlueINS_2OpIS5_NS_9op_htransEEENS_3GenIS5_NS_7gen_eyeEEENS_9glue_kronEEESB_EEvRNS4_INT_9elem_typeEEERKNS8_INS8_INS8_ISH_T0_NS_10glue_timesEEET1_SM_EET2_SM_EE"
 "_ZN4arma19glue_times_redirectILj4EE5applyINS_3eOpINS_4GlueINS_3MatIdEENS4_IS6_S6_NS_10glue_timesEEENS_9glue_kronEEENS_16eop_scalar_timesEEES6_NS4_INS_3GenIS6_NS_7gen_eyeEEENS_2OpISF_NS_10op_reshapeEEES9_EENSG_IS6_NS_9op_htransEEEEEvRNS5_INT_9elem_typeEEERKNS4_INS4_INS4_ISM_T0_S7_EET1_S7_EET2_S7_EE"
 "_ZN4arma19glue_times_redirectILj5EE5applyINS_4GlueINS3_INS3_INS_2OpINS_11subview_rowIdEENS_9op_htransEEES6_NS_10glue_timesEEENS_3MatIdEES9_EESC_S9_EESC_EEvRNSB_INT_9elem_typeEEERKNS3_ISF_T0_S9_EE"
 "_ZN4arma19glue_times_redirectILj7EE5applyINS_4GlueINS3_INS3_INS3_INS3_INS_2OpINS_11subview_rowIdEENS_9op_htransEEES6_NS_10glue_timesEEENS_3MatIdEES9_EESC_S9_EESC_S9_EESC_S9_EESC_EEvRNSB_INT_9elem_typeEEERKNS3_ISH_T0_S9_EE"
 "_ZN4arma27glue_times_redirect2_helperILb0EE5applyINS_2OpINS_3MatIdEENS_9op_htransEEES5_EEvRNS4_INT_9elem_typeEEERKNS_4GlueIS8_T0_NS_10glue_timesEEE"
 "_ZN4arma27glue_times_redirect2_helperILb0EE5applyINS_2OpINS_4GlueINS_3MatIdEES6_NS_9glue_kronEEENS_9op_htransEEES6_EEvRNS5_INT_9elem_typeEEERKNS4_ISB_T0_NS_10glue_timesEEE"
 "_ZN4arma27glue_times_redirect2_helperILb0EE5applyINS_3MatIdEENS_2OpIS4_NS_9op_htransEEEEEvRNS3_INT_9elem_typeEEERKNS_4GlueIS8_T0_NS_10glue_timesEEE"
 "_ZN4arma27glue_times_redirect2_helperILb0EE5applyINS_3MatIdEENS_4GlueINS5_INS_2OpINS_3GenIS4_NS_7gen_eyeEEENS_10op_reshapeEEENS5_INS5_INS6_INS_11subview_rowIdEENS_9op_htransEEESD_NS_10glue_timesEEES9_NS_9glue_kronEEESI_EES4_SG_EEEEvRNS3_INT_9elem_typeEEERKNS5_ISM_T0_SG_EE"
 "_ZN4arma27glue_times_redirect2_helperILb0EE5applyINS_3MatIdEENS_4GlueINS_2OpINS_3GenIS4_NS_7gen_eyeEEENS_10op_reshapeEEENS5_INS5_IS4_S9_NS_9glue_kronEEES4_NS_10glue_timesEEESC_EEEEvRNS3_INT_9elem_typeEEERKNS5_ISH_T0_SE_EE"
 "_ZN4arma27glue_times_redirect2_helperILb0EE5applyINS_3MatIdEENS_4GlueINS_2OpINS_3GenIS4_NS_7gen_eyeEEENS_10op_reshapeEEENS5_INS5_IS9_S4_NS_9glue_kronEEES4_NS_10glue_timesEEESC_EEEEvRNS3_INT_9elem_typeEEERKNS5_ISH_T0_SE_EE"
 "_ZN4arma27glue_times_redirect2_helperILb0EE5applyINS_3MatIdEENS_4GlueINS_2OpINS_3GenIS4_NS_7gen_eyeEEENS_10op_reshapeEEENS_5eGlueINS5_INS5_IS4_S9_NS_9glue_kronEEES4_NS_10glue_timesEEENS5_INS5_IS9_S4_SD_EES4_SF_EENS_10eglue_plusEEESD_EEEEvRNS3_INT_9elem_typeEEERKNS5_ISM_T0_SF_EE"
 "_ZN4arma27glue_times_redirect2_helperILb0EE5applyINS_3MatIdEES4_EEvRNS3_INT_9elem_typeEEERKNS_4GlueIS5_T0_NS_10glue_timesEEE"
 "_ZN4arma27glue_times_redirect2_helperILb0EE5applyINS_3eOpINS_3MatIdEENS_16eop_scalar_timesEEENS_4GlueINS8_INS_2OpINS_3GenIS5_NS_7gen_eyeEEENS_10op_reshapeEEENS8_INS8_INS9_INS_11subview_rowIdEENS_9op_htransEEESG_NS_10glue_timesEEESC_NS_9glue_kronEEESL_EES5_SJ_EEEEvRNS4_INT_9elem_typeEEERKNS8_ISP_T0_SJ_EE"
 "_ZN4arma27glue_times_redirect2_helperILb0EE5applyINS_4GlueINS_2OpINS_3GenINS_3MatIdEENS_7gen_eyeEEENS_10op_reshapeEEENS3_INS3_INS4_INS_11subview_rowIdEENS_9op_htransEEESD_NS_10glue_timesEEES9_NS_9glue_kronEEESI_EES7_EEvRNS6_INT_9elem_typeEEERKNS3_ISL_T0_SG_EE"
 "_ZN4arma27glue_times_redirect2_helperILb0EE5applyINS_4GlueINS_3GenINS_3MatIdEENS_7gen_eyeEEENS_2OpINS3_IS6_S6_NS_9glue_kronEEENS_9op_htransEEESA_EES6_EEvRNS5_INT_9elem_typeEEERKNS3_ISF_T0_NS_10glue_timesEEE"
 "_ZN4arma27glue_times_redirect2_helperILb0EE5applyINS_4GlueINS_3GenINS_3MatIdEENS_7gen_eyeEEES6_NS_9glue_kronEEES6_EEvRNS5_INT_9elem_typeEEERKNS3_ISB_T0_NS_10glue_timesEEE"
 "_ZN4arma27glue_times_redirect2_helperILb0EE5applyINS_4GlueINS_3MatIdEENS_3GenIS5_NS_7gen_eyeEEENS_9glue_kronEEES5_EEvRNS4_INT_9elem_typeEEERKNS3_ISB_T0_NS_10glue_timesEEE"
 "_ZN4arma27glue_times_redirect2_helperILb1EE5applyINS_2OpINS_4GlueINS3_INS_3MatIdEENS_9op_htransEEES6_NS_10glue_timesEEENS_6op_invEEES8_EEvRNS5_INT_9elem_typeEEERKNS4_ISD_T0_S9_EE"
 "_ZN4arma27glue_times_redirect3_helperILb0EE5applyINS_11subview_rowIdEENS_3MatIdEENS_2OpIS4_NS_9op_htransEEEEEvRNS5_INT_9elem_typeEEERKNS_4GlueINSE_ISA_T0_NS_10glue_timesEEET1_SG_EE"
 "_ZN4arma27glue_times_redirect3_helperILb0EE5applyINS_2OpINS_3MatIdEENS_9op_htransEEES5_S5_EEvRNS4_INT_9elem_typeEEERKNS_4GlueINSC_IS8_T0_NS_10glue_timesEEET1_SE_EE"
 "_ZN4arma27glue_times_redirect3_helperILb0EE5applyINS_3MatIdEES4_S4_EEvRNS3_INT_9elem_typeEEERKNS_4GlueINS9_IS5_T0_NS_10glue_timesEEET1_SB_EE"
 "_ZN4arma27glue_times_redirect3_helperILb0EE5applyINS_3eOpINS_3MatIdEENS_16eop_scalar_timesEEES5_NS_4GlueINS_3GenIS5_NS_7gen_eyeEEENS8_INS8_INS_2OpIS5_NS_9op_htransEEENSC_INS_11subview_rowIdEESD_EENS_10glue_timesEEESG_SI_EENS_9glue_kronEEEEEvRNS4_INT_9elem_typeEEERKNS8_INS8_ISN_T0_SI_EET1_SI_EE"
 "_ZN4arma27glue_times_redirect3_helperILb0EE5applyINS_3eOpINS_3MatIdEENS_16eop_scalar_timesEEES5_NS_4GlueINS_3GenIS5_NS_7gen_eyeEEENS8_INS8_IS5_NS_2OpINS_11subview_rowIdEENS_9op_htransEEENS_10glue_timesEEESE_SH_EENS_9glue_kronEEEEEvRNS4_INT_9elem_typeEEERKNS8_INS8_ISM_T0_SH_EET1_SH_EE"
 "_ZN4arma27glue_times_redirect3_helperILb0EE5applyINS_3eOpINS_3MatIdEENS_16eop_scalar_timesEEES5_NS_4GlueINS_3GenIS5_NS_7gen_eyeEEENS8_INS_2OpIS5_NS_9op_htransEEES5_NS_10glue_timesEEENS_9glue_kronEEEEEvRNS4_INT_9elem_typeEEERKNS8_INS8_ISJ_T0_SF_EET1_SF_EE"
 "_ZN4arma27glue_times_redirect3_helperILb0EE5applyINS_3eOpINS_3MatIdEENS_16eop_scalar_timesEEES5_NS_4GlueINS_3GenIS5_NS_7gen_eyeEEENS8_IS5_S5_NS_10glue_timesEEENS_9glue_kronEEEEEvRNS4_INT_9elem_typeEEERKNS8_INS8_ISG_T0_SC_EET1_SC_EE"
 "_ZN4arma27glue_times_redirect3_helperILb0EE5applyINS_4GlueINS_2OpINS_3MatIdEENS_9op_htransEEENS_3GenIS6_NS_7gen_eyeEEENS_9glue_kronEEES6_NS_5eGlueIS6_NS3_INS4_IS6_NS_10op_reshapeEEES6_SC_EENS_10eglue_plusEEEEEvRNS5_INT_9elem_typeEEERKNS3_INS3_ISK_T0_NS_10glue_timesEEET1_SP_EE"
 "_ZN4arma3MatISt7complexIdEE5resetEv"
 "_ZN4arma3MatISt7complexIdEE9init_warmEjj"
 "_ZN4arma3MatIdE10soft_resetEv"
 "_ZN4arma3MatIdE3eyeEv"
 "_ZN4arma3MatIdE5resetEv"
 "_ZN4arma3MatIdE5zerosEjj"
 "_ZN4arma3MatIdE9init_coldEv"
 "_ZN4arma3MatIdE9init_warmEjj"
 "_ZN4arma3MatIdE9steal_memERS1_"
 "_ZN4arma3MatIdEC1ERKNS_7subviewIdEE"
 "_ZN4arma3MatIdEC1ERKS1_"
 "_ZN4arma3MatIdEC1INS_4GlueINS_2OpIS1_NS_9op_htransEEES1_NS_10glue_timesEEENS_19eop_scalar_div_postEEERKNS_3eOpIT_T0_EE"
 "_ZN4arma3MatIdEC1INS_4GlueIS1_S1_NS_10glue_timesEEENS3_INS3_INS3_INS3_INS_2OpINS_11subview_rowIdEENS_9op_htransEEES8_S4_EES1_S4_EES1_S4_EES1_S4_EENS_11eglue_minusEEERKNS_5eGlueIT_T0_T1_EE"
 "_ZN4arma3MatIdEC1INS_5eGlueINS3_INS3_INS_4GlueIS1_S1_NS_10glue_timesEEENS4_INS4_IS6_S1_S5_EES1_S5_EENS_11eglue_minusEEENS4_INS4_INS4_INS4_INS4_INS4_INS_2OpINS_11subview_rowIdEENS_9op_htransEEESD_S5_EES1_S5_EES1_S5_EES1_S5_EES1_S5_EES1_S5_EENS_10eglue_plusEEESJ_S9_EESL_SM_EERKNS3_IT_T0_T1_EE"
 "_ZN4arma3MatIdEC1IS1_NS_16eop_scalar_timesEEERKNS_3eOpIT_T0_EE"
 "_ZN4arma3MatIdEC1IS1_NS_9op_htransEEERKNS_2OpIT_T0_EE"
 "_ZN4arma3MatIdEaSERKNS_7subviewIdEE"
 "_ZN4arma3MatIdEaSINS_4GlueINS3_INS3_INS_2OpIS1_NS_9op_htransEEENS_3GenIS1_NS_7gen_eyeEEENS_9glue_kronEEES1_NS_10glue_timesEEENS_5eGlueIS1_NS3_INS4_IS1_NS_10op_reshapeEEES1_SA_EENS_10eglue_plusEEESC_EENS3_INS3_IS9_NS4_INS3_IS1_S1_SA_EES5_EESA_EES1_SC_EESI_EERS1_RKNSE_IT_T0_T1_EE"
 "_ZN4arma3MatIdEaSINS_4GlueINS3_INS3_INS_2OpIS1_NS_9op_htransEEENS_3GenIS1_NS_7gen_eyeEEENS_9glue_kronEEES1_NS_10glue_timesEEENS_5eGlueIS1_NS3_INS4_IS1_NS_10op_reshapeEEES1_SA_EENS_10eglue_plusEEESC_EENS3_INS3_IS9_S1_SA_EES1_SC_EESI_EERS1_RKNSE_IT_T0_T1_EE"
 "_ZN4arma3MatIdEaSINS_4GlueINS3_INS3_INS_3eOpINS3_IS1_NS3_IS1_S1_NS_10glue_timesEEENS_9glue_kronEEENS_16eop_scalar_timesEEES1_S5_EENS3_INS_3GenIS1_NS_7gen_eyeEEENS_2OpISE_NS_10op_reshapeEEES7_EES5_EENSF_IS1_NS_9op_htransEEES5_EENS3_INS3_ISE_S1_S7_EES1_S5_EENS_10eglue_plusEEERS1_RKNS_5eGlueIT_T0_T1_EE"
 "_ZN4arma3MatIdEaSINS_4GlueINS3_INS3_INS_3eOpIS1_NS_16eop_scalar_timesEEES1_NS_10glue_timesEEENS3_INS_2OpIS1_NS_9op_htransEEENS_3GenIS1_NS_7gen_eyeEEENS_9glue_kronEEES7_EESB_S7_EENS3_INS9_INS3_IS1_S1_SF_EESA_EES1_S7_EENS_10eglue_plusEEERS1_RKNS_5eGlueIT_T0_T1_EE"
 "_ZN4arma3MatIdEaSINS_4GlueINS3_INS3_INS_3eOpIS1_NS_16eop_scalar_timesEEES1_NS_10glue_timesEEENS3_INS_2OpIS1_NS_9op_htransEEENS_3GenIS1_NS_7gen_eyeEEENS_9glue_kronEEES7_EESB_S7_EENS3_IS1_S1_S7_EENS_10eglue_plusEEERS1_RKNS_5eGlueIT_T0_T1_EE"
 "_ZN4arma3MatIdEaSINS_4GlueINS3_INS_3eOpIS1_NS_16eop_scalar_timesEEES1_NS_10glue_timesEEENS3_INS_3GenIS1_NS_7gen_eyeEEENS3_INS3_INS_2OpIS1_NS_9op_htransEEENSC_INS_11subview_rowIdEESD_EES7_EESG_S7_EENS_9glue_kronEEES7_EENS3_INSC_INS3_IS1_S1_SK_EESD_EES1_S7_EENS_10eglue_plusEEERS1_RKNS_5eGlueIT_T0_T1_EE"
 "_ZN4arma3MatIdEaSINS_4GlueINS3_INS_3eOpIS1_NS_16eop_scalar_timesEEES1_NS_10glue_timesEEENS3_INS_3GenIS1_NS_7gen_eyeEEENS3_INS3_INS_2OpIS1_NS_9op_htransEEENSC_INS_11subview_rowIdEESD_EES7_EESG_S7_EENS_9glue_kronEEES7_EENS3_IS1_S1_S7_EENS_10eglue_plusEEERS1_RKNS_5eGlueIT_T0_T1_EE"
 "_ZN4arma3MatIdEaSINS_4GlueINS3_INS_3eOpIS1_NS_16eop_scalar_timesEEES1_NS_10glue_timesEEENS3_INS_3GenIS1_NS_7gen_eyeEEENS3_INS3_IS1_NS_2OpINS_11subview_rowIdEENS_9op_htransEEES7_EESE_S7_EENS_9glue_kronEEES7_EENS3_IS1_S1_S7_EENS_10eglue_plusEEERS1_RKNS_5eGlueIT_T0_T1_EE"
 "_ZN4arma3MatIdEaSINS_4GlueINS3_INS_3eOpIS1_NS_16eop_scalar_timesEEES1_NS_10glue_timesEEENS3_INS_3GenIS1_NS_7gen_eyeEEENS3_INS_2OpIS1_NS_9op_htransEEES1_S7_EENS_9glue_kronEEES7_EENS3_IS1_S1_S7_EENS_10eglue_plusEEERS1_RKNS_5eGlueIT_T0_T1_EE"
 "_ZN4arma3MatIdEaSINS_4GlueINS3_INS_3eOpIS1_NS_16eop_scalar_timesEEES1_NS_10glue_timesEEENS3_INS_3GenIS1_NS_7gen_eyeEEENS3_IS1_S1_S7_EENS_9glue_kronEEES7_EENS3_INS_2OpINS3_IS1_S1_SD_EENS_9op_htransEEES1_S7_EENS_10eglue_plusEEERS1_RKNS_5eGlueIT_T0_T1_EE"
 "_ZN4arma3MatIdEaSINS_4GlueINS3_INS_3eOpIS1_NS_16eop_scalar_timesEEES1_NS_10glue_timesEEENS3_INS_3GenIS1_NS_7gen_eyeEEENS3_IS1_S1_S7_EENS_9glue_kronEEES7_EESC_NS_10eglue_plusEEERS1_RKNS_5eGlueIT_T0_T1_EE"
 "_ZN4arma3MatIdEaSINS_4GlueINS_3eOpIS1_NS_16eop_scalar_timesEEENS3_INS3_INS_2OpINS_3GenIS1_NS_7gen_eyeEEENS_10op_reshapeEEENS3_INS3_INS7_INS_11subview_rowIdEENS_9op_htransEEESE_NS_10glue_timesEEESA_NS_9glue_kronEEESJ_EES1_SH_EESH_EENS3_INS3_ISA_S1_SJ_EES1_SH_EENS_10eglue_plusEEERS1_RKNS_5eGlueIT_T0_T1_EE"
 "_ZN4arma3MatIdEaSINS_4GlueIS1_NS3_INS3_INS_2OpINS_3GenIS1_NS_7gen_eyeEEENS_10op_reshapeEEENS3_INS3_INS4_INS_11subview_rowIdEENS_9op_htransEEESB_NS_10glue_timesEEES7_NS_9glue_kronEEESG_EES1_SE_EESE_EENS3_INS3_IS7_S1_SG_EES1_SE_EENS_10eglue_plusEEERS1_RKNS_5eGlueIT_T0_T1_EE"
 "_ZN4arma3MatIdEaSINS_4GlueIS1_NS3_INS_2OpINS_3GenIS1_NS_7gen_eyeEEENS_10op_reshapeEEENS3_INS3_IS7_S1_NS_9glue_kronEEES1_NS_10glue_timesEEESA_EESC_EESD_NS_10eglue_plusEEERS1_RKNS_5eGlueIT_T0_T1_EE"
 "_ZN4arma3MatIdEaSINS_5eGlueINS3_IS1_NS_4GlueINS4_INS4_INS_2OpIS1_NS_9op_htransEEENS5_INS_11subview_rowIdEES6_EENS_10glue_timesEEES9_SB_EES1_SB_EENS_10eglue_plusEEENS4_INS4_INS4_INS5_IS1_NS_10op_htrans2EEESA_SB_EES9_SB_EES1_SB_EESF_EENS4_INS4_IS7_S1_SB_EES1_SB_EESF_EERS1_RKNS3_IT_T0_T1_EE"
 "_ZN4arma3MatIdEaSINS_5eGlueINS3_IS1_NS_4GlueINS4_INS4_IS1_NS_2OpINS_11subview_rowIdEENS_9op_htransEEENS_10glue_timesEEES7_SA_EES1_SA_EENS_10eglue_plusEEENS4_INS4_INS4_INS_3eOpIS1_NS_16eop_scalar_timesEEES9_SA_EES7_SA_EES1_SA_EESE_EENS4_INS4_IS1_S1_SA_EES1_SA_EESE_EERS1_RKNS3_IT_T0_T1_EE"
 "_ZN4arma3MatIdEaSINS_5eGlueINS_4GlueIS1_NS4_INS_2OpINS_3GenIS1_NS_7gen_eyeEEENS_10op_reshapeEEENS3_INS4_INS4_IS1_S8_NS_9glue_kronEEES1_NS_10glue_timesEEENS4_INS4_IS8_S1_SB_EES1_SD_EENS_10eglue_plusEEESB_EESD_EENS4_INS4_INS4_INS5_IS1_NS_9op_htransEEES8_SB_EES1_SD_EENS3_IS1_NS4_INS5_IS1_S9_EES1_SB_EESH_EESD_EESH_EESG_SH_EERS1_RKNS3_IT_T0_T1_EE"
 "_ZN4arma3MatIdEaSINS_5eGlueIS1_NS_4GlueINS4_INS4_INS_2OpIS1_NS_9op_htransEEENS5_INS_11subview_rowIdEES6_EENS_10glue_timesEEES9_SB_EES1_SB_EENS_10eglue_plusEEENS4_INS4_IS7_S1_SB_EES1_SB_EESF_EERS1_RKNS3_IT_T0_T1_EE"
 "_ZN4arma3MatIdEaSINS_5eGlueIS1_NS_4GlueINS4_INS4_IS1_NS_2OpINS_11subview_rowIdEENS_9op_htransEEENS_10glue_timesEEES7_SA_EES1_SA_EENS_10eglue_plusEEENS4_INS4_IS1_S1_SA_EES1_SA_EESE_EERS1_RKNS3_IT_T0_T1_EE"
 "_ZN4arma3MatIdEaSIS1_NS_9op_htransEEERS1_RKNS_2OpIT_T0_EE"
 "_ZN4arma3MatIjE9init_warmEjj"
 "_ZN4arma3detINS_3MatIdEEEENS_10enable_if2IXsrNS_22is_supported_blas_typeINT_9elem_typeEEE5valueES6_E6resultERKNS_4BaseIS6_S5_EE"
 "_ZN4arma4gemvILb0ELb0ELb0EE15apply_blas_typeIdNS_3MatIdEEEEvPT_RKT0_PKS5_S5_S5_"
 "_ZN4arma4gemvILb0ELb1ELb0EE15apply_blas_typeIdNS_3MatIdEEEEvPT_RKT0_PKS5_S5_S5_"
 "_ZN4arma4gemvILb1ELb0ELb0EE15apply_blas_typeIdNS_3MatIdEEEEvPT_RKT0_PKS5_S5_S5_"
 "_ZN4arma4gemvILb1ELb0ELb0EE15apply_blas_typeIdNS_3RowIdEEEEvPT_RKT0_PKS5_S5_S5_"
 "_ZN4arma4syrkILb1ELb0ELb0EE15apply_blas_typeIdNS_3RowIdEEEEvRNS_3MatIT_EERKT0_S6_S6_"
 "_ZN4arma5DatumIdE3nanE"
 "_ZN4arma5ProxyINS_4GlueINS1_INS1_INS1_INS1_INS1_INS_2OpINS_11subview_rowIdEENS_9op_htransEEES4_NS_10glue_timesEEENS_3MatIdEES7_EESA_S7_EESA_S7_EESA_S7_EESA_S7_EEEC1ERKSF_"
 "_ZN4arma5ProxyINS_4GlueINS1_INS1_INS1_INS1_INS1_INS_2OpINS_11subview_rowIdEENS_9op_htransEEES4_NS_10glue_timesEEENS_3MatIdEES7_EESA_S7_EESA_S7_EESA_S7_EESA_S7_EEED1Ev"
 "_ZN4arma5ProxyINS_4GlueINS1_INS1_INS1_INS_2OpINS_11subview_rowIdEENS_9op_htransEEES4_NS_10glue_timesEEENS_3MatIdEES7_EESA_S7_EESA_S7_EEEC1ERKSD_"
 "_ZN4arma5ProxyINS_4GlueINS1_INS1_INS1_INS_2OpINS_11subview_rowIdEENS_9op_htransEEES4_NS_10glue_timesEEENS_3MatIdEES7_EESA_S7_EESA_S7_EEED1Ev"
 "_ZN4arma5ProxyINS_4GlueINS1_INS1_INS_2OpINS_3MatIdEENS_9op_htransEEENS2_INS_11subview_rowIdEES5_EENS_10glue_timesEEES8_SA_EES4_SA_EEED1Ev"
 "_ZN4arma5ProxyINS_4GlueINS1_INS1_INS_2OpINS_3MatIdEENS_9op_htransEEENS_3GenIS4_NS_7gen_eyeEEENS_9glue_kronEEES4_NS_10glue_timesEEENS_5eGlueIS4_NS1_INS2_IS4_NS_10op_reshapeEEES4_SA_EENS_10eglue_plusEEESC_EEEC1ERKSK_"
 "_ZN4arma5ProxyINS_4GlueINS1_INS1_INS_2OpINS_3MatIdEENS_9op_htransEEENS_3GenIS4_NS_7gen_eyeEEENS_9glue_kronEEES4_NS_10glue_timesEEENS_5eGlueIS4_NS1_INS2_IS4_NS_10op_reshapeEEES4_SA_EENS_10eglue_plusEEESC_EEED1Ev"
 "_ZN4arma5ProxyINS_4GlueINS1_INS1_INS_3MatIdEENS_2OpINS_11subview_rowIdEENS_9op_htransEEENS_10glue_timesEEES6_S9_EES3_S9_EEED1Ev"
 "_ZN4arma5ProxyINS_4GlueINS1_INS1_INS_3MatIdEES3_NS_10glue_timesEEES3_S4_EES3_S4_EEED1Ev"
 "_ZN4arma5ProxyINS_4GlueINS1_INS1_INS_3eOpINS1_INS_3MatIdEENS1_IS4_S4_NS_10glue_timesEEENS_9glue_kronEEENS_16eop_scalar_timesEEES4_S5_EENS1_INS_3GenIS4_NS_7gen_eyeEEENS_2OpISE_NS_10op_reshapeEEES7_EES5_EENSF_IS4_NS_9op_htransEEES5_EEED1Ev"
 "_ZN4arma5ProxyINS_4GlueINS1_INS1_INS_3eOpINS_3MatIdEENS_16eop_scalar_timesEEENS_2OpINS_11subview_rowIdEENS_9op_htransEEENS_10glue_timesEEES9_SC_EES4_SC_EEED1Ev"
 "_ZN4arma5ProxyINS_4GlueINS1_INS1_INS_3eOpINS_3MatIdEENS_16eop_scalar_timesEEES4_NS_10glue_timesEEENS1_INS_2OpIS4_NS_9op_htransEEENS_3GenIS4_NS_7gen_eyeEEENS_9glue_kronEEES7_EESB_S7_EEED1Ev"
 "_ZN4arma5ProxyINS_4GlueINS1_INS_2OpINS_3MatIdEENS_9op_htransEEES4_NS_10glue_timesEEES4_S7_EEED1Ev"
 "_ZN4arma5ProxyINS_4GlueINS1_INS_3GenINS_3MatIdEENS_7gen_eyeEEENS_2OpINS1_IS4_S4_NS_9glue_kronEEENS_9op_htransEEES8_EES4_NS_10glue_timesEEEEC1ERKSE_"
 "_ZN4arma5ProxyINS_4GlueINS1_INS_3GenINS_3MatIdEENS_7gen_eyeEEENS_2OpINS1_IS4_S4_NS_9glue_kronEEENS_9op_htransEEES8_EES4_NS_10glue_timesEEEED1Ev"
 "_ZN4arma5ProxyINS_4GlueINS1_INS_3GenINS_3MatIdEENS_7gen_eyeEEES4_NS_9glue_kronEEES4_NS_10glue_timesEEEED1Ev"
 "_ZN4arma5ProxyINS_4GlueINS1_INS_3MatIdEENS_3GenIS3_NS_7gen_eyeEEENS_9glue_kronEEES3_NS_10glue_timesEEEED1Ev"
 "_ZN4arma5ProxyINS_4GlueINS1_INS_3MatIdEES3_NS_10glue_timesEEES3_S4_EEED1Ev"
 "_ZN4arma5ProxyINS_4GlueINS1_INS_3eOpINS_3MatIdEENS_16eop_scalar_timesEEES4_NS_10glue_timesEEENS1_INS_3GenIS4_NS_7gen_eyeEEENS1_INS1_INS_2OpIS4_NS_9op_htransEEENSC_INS_11subview_rowIdEESD_EES7_EESG_S7_EENS_9glue_kronEEES7_EEEC1ERKSM_"
 "_ZN4arma5ProxyINS_4GlueINS1_INS_3eOpINS_3MatIdEENS_16eop_scalar_timesEEES4_NS_10glue_timesEEENS1_INS_3GenIS4_NS_7gen_eyeEEENS1_INS1_INS_2OpIS4_NS_9op_htransEEENSC_INS_11subview_rowIdEESD_EES7_EESG_S7_EENS_9glue_kronEEES7_EEED1Ev"
 "_ZN4arma5ProxyINS_4GlueINS1_INS_3eOpINS_3MatIdEENS_16eop_scalar_timesEEES4_NS_10glue_timesEEENS1_INS_3GenIS4_NS_7gen_eyeEEENS1_INS1_IS4_NS_2OpINS_11subview_rowIdEENS_9op_htransEEES7_EESE_S7_EENS_9glue_kronEEES7_EEEC1ERKSL_"
 "_ZN4arma5ProxyINS_4GlueINS1_INS_3eOpINS_3MatIdEENS_16eop_scalar_timesEEES4_NS_10glue_timesEEENS1_INS_3GenIS4_NS_7gen_eyeEEENS1_INS1_IS4_NS_2OpINS_11subview_rowIdEENS_9op_htransEEES7_EESE_S7_EENS_9glue_kronEEES7_EEED1Ev"
 "_ZN4arma5ProxyINS_4GlueINS1_INS_3eOpINS_3MatIdEENS_16eop_scalar_timesEEES4_NS_10glue_timesEEENS1_INS_3GenIS4_NS_7gen_eyeEEENS1_IS4_S4_S7_EENS_9glue_kronEEES7_EEED1Ev"
 "_ZN4arma5ProxyINS_4GlueINS_2OpINS1_INS_3MatIdEES4_NS_9glue_kronEEENS_9op_htransEEES4_NS_10glue_timesEEEED1Ev"
 "_ZN4arma5ProxyINS_4GlueINS_2OpINS_3MatIdEENS_10op_reshapeEEES4_NS_9glue_kronEEEED1Ev"
 "_ZN4arma5ProxyINS_4GlueINS_3MatIdEENS1_INS1_INS_2OpINS_3GenIS3_NS_7gen_eyeEEENS_10op_reshapeEEENS1_INS1_INS4_INS_11subview_rowIdEENS_9op_htransEEESB_NS_10glue_timesEEES7_NS_9glue_kronEEESG_EES3_SE_EESE_EEED1Ev"
 "_ZN4arma5ProxyINS_4GlueINS_3MatIdEENS1_INS_2OpINS_3GenIS3_NS_7gen_eyeEEENS_10op_reshapeEEENS1_INS1_IS7_S3_NS_9glue_kronEEES3_NS_10glue_timesEEESA_EESC_EEEC1ERKSF_"
 "_ZN4arma5ProxyINS_4GlueINS_3MatIdEENS1_INS_2OpINS_3GenIS3_NS_7gen_eyeEEENS_10op_reshapeEEENS1_INS1_IS7_S3_NS_9glue_kronEEES3_NS_10glue_timesEEESA_EESC_EEED1Ev"
 "_ZN4arma5ProxyINS_4GlueINS_3MatIdEENS1_INS_2OpINS_3GenIS3_NS_7gen_eyeEEENS_10op_reshapeEEENS_5eGlueINS1_INS1_IS3_S7_NS_9glue_kronEEES3_NS_10glue_timesEEENS1_INS1_IS7_S3_SB_EES3_SD_EENS_10eglue_plusEEESB_EESD_EEED1Ev"
 "_ZN4arma5ProxyINS_4GlueINS_3MatIdEES3_NS_10glue_timesEEEED1Ev"
 "_ZN4arma5ProxyINS_4GlueINS_3MatIdEES3_NS_9glue_kronEEEED1Ev"
 "_ZN4arma5ProxyINS_4GlueINS_3eOpINS_3MatIdEENS_16eop_scalar_timesEEENS_2OpIS4_NS_9op_htransEEENS_10glue_timesEEEED1Ev"
 "_ZN4arma6auxlib10eig_sym_dcIdEEbRNS_3ColIT_EERNS_3MatIS3_EERKS7_"
 "_ZN4arma6auxlib11svd_dc_econIdEEbRNS_3MatIT_EERNS_3ColIS3_EES5_S5_"
 "_ZN4arma6auxlib15eig_gen_balanceINS_3MatIdEEEEbRNS2_ISt7complexINT_8pod_typeEEEES9_bRKNS_4BaseIS6_S5_EE"
 "_ZN4arma6auxlib17solve_square_tinyINS_3MatIdEEEEbRNS2_INT_9elem_typeEEERKS6_RKNS_4BaseIS5_S4_EE"
 "_ZN4arma6auxlib3invIdEEbRNS_3MatIT_EE"
 "_ZN4arma6auxlib7eig_genINS_3MatIdEEEEbRNS2_ISt7complexINT_8pod_typeEEEES9_bRKNS_4BaseIS6_S5_EE"
 "_ZN4arma6auxlib7eig_symIdEEbRNS_3ColIT_EERNS_3MatIS3_EERKS7_"
 "_ZN4arma6memory7acquireIdEEPT_j"
 "_ZN4arma6op_det10apply_tinyIdEET_RKNS_3MatIS2_EE"
 "_ZN4arma6op_det12apply_directINS_3MatIdEEEEbRNT_9elem_typeERKNS_4BaseIS5_S4_EE"
 "_ZN4arma6op_dot10direct_dotIdEENS_14arma_real_onlyIT_E6resultEjPKS3_S7_"
 "_ZN4arma6op_inv12apply_directINS_3MatIdEEEEbRNS2_INT_9elem_typeEEERKNS_4BaseIS5_S4_EEPKc"
 "_ZN4arma6op_inv13apply_diagmatINS_3MatIdEEEEbRNS2_INT_9elem_typeEEERKS4_PKc"
 "_ZN4arma6op_inv18apply_tiny_noaliasIdEEbRNS_3MatIT_EERKS4_"
 "_ZN4arma6op_max13apply_noaliasIdEEvRNS_3MatIT_EERKS4_jPKNS_11arma_not_cxIS3_E6resultE"
 "_ZN4arma6op_sum19apply_noalias_proxyINS_3eOpINS_3MatIdEENS_7eop_absEEEEEvRNS3_INT_9elem_typeEEERKNS_5ProxyIS7_EEj"
 "_ZN4arma6op_sum19apply_noalias_proxyINS_3eOpINS_5eGlueINS_3MatIdEENS_2OpIS5_NS_9op_htransEEENS_11eglue_minusEEENS_7eop_absEEEEEvRNS4_INT_9elem_typeEEERKNS_5ProxyISD_EEj"
 "_ZN4arma6op_sum20apply_noalias_unwrapINS_3MatIdEEEEvRNS2_INT_9elem_typeEEERKNS_5ProxyIS4_EEj"
 "_ZN4arma7eig_genINS_3MatIdEEEENS_10enable_if2IXsrNS_22is_supported_blas_typeINT_8pod_typeEEE5valueENS_3ColISt7complexIS6_EEEE6resultERKNS_4BaseINS5_9elem_typeES5_EEPKc"
 "_ZN4arma7op_pinv12apply_directINS_3MatIdEEEEbRNS2_INT_9elem_typeEEERKNS_4BaseIS5_S4_EENS4_8pod_typeEj"
 "_ZN4arma7op_pinv9apply_symIdEEbRNS_3MatIT_EERKS4_NS_12get_pod_typeIS3_E6resultEj"
 "_ZN4arma7subviewIdE10inplace_opINS_15op_internal_equENS_2OpINS4_INS_3MatIdEENS_16op_vectorise_colEEENS_9op_htransEEEEEvRKNS_4BaseIdT0_EEPKc"
 "_ZN4arma7subviewIdE10inplace_opINS_15op_internal_equENS_2OpINS_4GlueINS_3MatIdEENS4_INS_11subview_rowIdEENS_9op_htransEEENS_10glue_timesEEESA_EEEEvRKNS_4BaseIdT0_EEPKc"
 "_ZN4arma7subviewIdE10inplace_opINS_15op_internal_equENS_3MatIdEEEEvRKNS_4BaseIdT0_EEPKc"
 "_ZN4arma7subviewIdE10inplace_opINS_15op_internal_equENS_3eOpINS_3MatIdEENS_16eop_scalar_timesEEEEEvRKNS_4BaseIdT0_EEPKc"
 "_ZN4arma7subviewIdE7extractERNS_3MatIdEERKS1_"
 "_ZN4arma7subviewIdEaSINS_3MatIdEENS_9gen_zerosEEENS_10enable_if2IXsrNS_12is_same_typeINT_9elem_typeEdEE5valueEvE6resultERKNS_3GenIS8_T0_EE"
 "_ZN4arma8arrayops10copy_smallIdEEvPT_PKS2_j"
 "_ZN4arma8eop_coreINS_8eop_sqrtEE5applyINS_3MatIdEENS_8diagviewIdEEEEvRT_RKNS_3eOpIT0_S1_EE"
 "_ZN4arma9as_scalarINS_2OpINS1_INS_3eOpINS_3MatIdEENS_7eop_absEEENS_6op_sumEEENS_6op_maxEEEEENT_9elem_typeERKNS_4BaseISC_SB_EE"
 "_ZN4arma9glue_kron11direct_kronIdEEvRNS_3MatIT_EERKS4_S7_"
 "_ZN4arma9glue_kron5applyINS_2OpINS_3MatIdEENS_10op_reshapeEEES4_EEvRNS3_INT_9elem_typeEEERKNS_4GlueIS7_T0_S0_EE"
 "_ZN4arma9glue_kron5applyINS_3GenINS_3MatIdEENS_7gen_eyeEEENS_4GlueIS4_S4_NS_10glue_timesEEEEEvRNS3_INT_9elem_typeEEERKNS7_ISA_T0_S0_EE"
 "_ZN4arma9glue_kron5applyINS_3MatIdEENS_2OpIS3_NS_10op_reshapeEEEEEvRNS2_INT_9elem_typeEEERKNS_4GlueIS7_T0_S0_EE"
 "_ZN4arma9glue_kron5applyINS_3MatIdEENS_4GlueIS3_S3_NS_10glue_timesEEEEEvRNS2_INT_9elem_typeEEERKNS4_IS7_T0_S0_EE"
 "_ZN4arma9glue_kron5applyINS_4GlueINS_3GenINS_3MatIdEENS_7gen_eyeEEES5_S0_EES7_EEvRNS4_INT_9elem_typeEEERKNS2_IS9_T0_S0_EE"
 "_ZN4arma9join_vertIdNS_3MatIdEES2_S2_EENS1_IT_EERKNS_4BaseIS3_T0_EERKNS5_IS3_T1_EERKNS5_IS3_T2_EE"
 "_ZN4arma9join_vertIdNS_3MatIdEES2_S2_S2_EENS1_IT_EERKNS_4BaseIS3_T0_EERKNS5_IS3_T1_EERKNS5_IS3_T2_EERKNS5_IS3_T3_EE"
 "_ZN4arma9op_strans12apply_directINS_11subview_rowIdEEEEvRNS_3MatINT_9elem_typeEEERKS5_"
 "_ZN4arma9op_strans12apply_directINS_2OpINS_3MatIdEENS_7op_cholEEEEEvRNS3_INT_9elem_typeEEERKS7_"
 "_ZN4arma9op_strans12apply_directINS_4GlueINS_3MatIdEES4_NS_9glue_kronEEEEEvRNS3_INT_9elem_typeEEERKS7_"
 "_ZN4arma9op_strans17apply_mat_inplaceIdEEvRNS_3MatIT_EE"
 "_ZN4arma9op_strans17apply_mat_noaliasIdNS_3MatIdEEEEvRNS2_IT_EERKT0_"
 "_ZN4arma9op_strans24apply_mat_noalias_tinysqIdNS_3MatIdEEEEvRNS2_IT_EERKT0_"
 "_ZN4arma9op_trimat12apply_unwrapIdEEvRNS_3MatIT_EERKS4_b"
 "_ZN4arma9syrk_emulILb1ELb0ELb0EE5applyIdNS_3MatIdEEEEvRNS3_IT_EERKT0_S5_S5_"
 "_ZNK4Rcpp10eval_error4whatEv"
 "_ZNK4Rcpp13BindingPolicyINS_16Environment_ImplINS_15PreserveStorageEEEE7BindingcvT_INS_13Function_ImplIS2_EEEEv"
 "_ZNK4Rcpp14not_compatible4whatEv"
 "_ZNK4Rcpp9exception4whatEv"
 "_ZNKSt5ctypeIcE8do_widenEc"
 "_ZNSt7__cxx1112basic_stringIcSt11char_traitsIcESaIcEE12_M_constructIPKcEEvT_S8_St20forward_iterator_tag"
 "_ZNSt7__cxx1112basic_stringIcSt11char_traitsIcESaIcEE12_M_constructIPcEEvT_S7_St20forward_iterator_tag"
 "_ZNSt7__cxx1115basic_stringbufIcSt11char_traitsIcESaIcEED1Ev"
 "_ZSt13__adjust_heapIN9__gnu_cxx17__normal_iteratorIPN4arma22arma_sort_index_packetIdEESt6vectorIS4_SaIS4_EEEExS4_NS0_5__ops15_Iter_comp_iterINS2_29arma_sort_index_helper_ascendIdEEEEEvT_T0_SG_T1_T2_"
 "_ZSt13__adjust_heapIN9__gnu_cxx17__normal_iteratorIPN4arma22arma_sort_index_packetIdEESt6vectorIS4_SaIS4_EEEExS4_NS0_5__ops15_Iter_comp_iterINS2_30arma_sort_index_helper_descendIdEEEEEvT_T0_SG_T1_T2_"
 "_ZSt16__insertion_sortIN9__gnu_cxx17__normal_iteratorIPN4arma22arma_sort_index_packetIdEESt6vectorIS4_SaIS4_EEEENS0_5__ops15_Iter_comp_iterINS2_29arma_sort_index_helper_ascendIdEEEEEvT_SF_T0_"
 "_ZSt16__insertion_sortIN9__gnu_cxx17__normal_iteratorIPN4arma22arma_sort_index_packetIdEESt6vectorIS4_SaIS4_EEEENS0_5__ops15_Iter_comp_iterINS2_30arma_sort_index_helper_descendIdEEEEEvT_SF_T0_"
 "_ZSt16__introsort_loopIN9__gnu_cxx17__normal_iteratorIPN4arma22arma_sort_index_packetIdEESt6vectorIS4_SaIS4_EEEExNS0_5__ops15_Iter_comp_iterINS2_29arma_sort_index_helper_ascendIdEEEEEvT_SF_T0_T1_"
 "_ZSt16__introsort_loopIN9__gnu_cxx17__normal_iteratorIPN4arma22arma_sort_index_packetIdEESt6vectorIS4_SaIS4_EEEExNS0_5__ops15_Iter_comp_iterINS2_30arma_sort_index_helper_descendIdEEEEEvT_SF_T0_T1_"
 "_ZTCN4Rcpp8RostreamILb0EEE0_So"
 "_ZTCN4Rcpp8RostreamILb1EEE0_So"
 "_ZTIN4Rcpp10RstreambufILb0EEE"
 "_ZTIN4Rcpp10RstreambufILb1EEE"
 "_ZTIN4Rcpp10eval_errorE"
 "_ZTIN4Rcpp14not_compatibleE"
 "_ZTIN4Rcpp8RostreamILb0EEE"
 "_ZTIN4Rcpp8RostreamILb1EEE"
 "_ZTIN4Rcpp8internal20InterruptedExceptionE"
 "_ZTIN4Rcpp9exceptionE"
 "_ZTISt11logic_error"
 "_ZTISt12out_of_range"
 "_ZTISt13runtime_error"
 "_ZTISt9bad_alloc"
 "_ZTISt9exception"
 "_ZTSN4Rcpp10RstreambufILb0EEE"
 "_ZTSN4Rcpp10RstreambufILb1EEE"
 "_ZTSN4Rcpp10eval_errorE"
 "_ZTSN4Rcpp14not_compatibleE"
 "_ZTSN4Rcpp8RostreamILb0EEE"
 "_ZTSN4Rcpp8RostreamILb1EEE"
 "_ZTSN4Rcpp8internal20InterruptedExceptionE"
 "_ZTSN4Rcpp9exceptionE"
 "_ZTSSt11logic_error"
 "_ZTSSt12out_of_range"
 "_ZTSSt13runtime_error"
 "_ZTSSt9bad_alloc"
 "_ZTSSt9exception"
 "_ZTTN4Rcpp8RostreamILb0EEE"
 "_ZTTN4Rcpp8RostreamILb1EEE"
 "_ZTVN4Rcpp10RstreambufILb0EEE"
 "_ZTVN4Rcpp10RstreambufILb1EEE"
 "_ZTVN4Rcpp10eval_errorE"
 "_ZTVN4Rcpp14not_compatibleE"
 "_ZTVN4Rcpp8RostreamILb0EEE"
 "_ZTVN4Rcpp8RostreamILb1EEE"
 "_ZTVN4Rcpp9exceptionE"
 "_ZTv0_n24_N4Rcpp8RostreamILb0EED0Ev"
 "_ZTv0_n24_N4Rcpp8RostreamILb0EED1Ev"
 "_ZTv0_n24_N4Rcpp8RostreamILb1EED0Ev"
 "_ZTv0_n24_N4Rcpp8RostreamILb1EED1Ev"
 "_ZZ7dataptrP7SEXPRECE3fun"
 "_ZZN4Rcpp20Rcpp_precious_removeEP7SEXPRECE3fun"
 "_ZZN4Rcpp22Rcpp_precious_preserveEP7SEXPRECE3fun"
 "_ZZN4arma16arma_cerr_streamIcEERSoPSoE11cerr_stream"
 "_Z15simulate_bekk_cN4arma3ColIdEEii"
 "_Z16simulate_bekka_cN4arma3ColIdEEiiS1_d"
 "_ZGVN4arma5DatumIdE3nanE"
 "_ZN4Rcpp10RstreambufILb0EE4syncEv"
 "_ZN4Rcpp10RstreambufILb0EE6xsputnEPKcx"
 "_ZN4Rcpp10RstreambufILb0EE8overflowEi"
 "_ZN4Rcpp10RstreambufILb0EED0Ev"
 "_ZN4Rcpp10RstreambufILb0EED1Ev"
 "_ZN4Rcpp10RstreambufILb1EE4syncEv"
 "_ZN4Rcpp10RstreambufILb1EE6xsputnEPKcx"
 "_ZN4Rcpp10RstreambufILb1EE8overflowEi"
 "_ZN4Rcpp10RstreambufILb1EED0Ev"
 "_ZN4Rcpp10RstreambufILb1EED1Ev"
 "_ZN4Rcpp8RostreamILb0EED0Ev"
 "_ZN4Rcpp8RostreamILb0EED1Ev"
 "_ZN4Rcpp8RostreamILb1EED0Ev"
 "_ZN4Rcpp8RostreamILb1EED1Ev"
 "_ZN4arma10eglue_coreINS_10eglue_plusEE5applyINS_3MatIdEENS_5eGlueINS6_IS5_NS_4GlueINS7_INS7_IS5_NS_11subview_colIdEENS_10glue_timesEEENS_2OpIS9_NS_9op_htransEEESA_EES5_SA_EES1_EENS7_INS7_INS7_INS_3eOpIS5_NS_16eop_scalar_timesEEES9_SA_EESE_SA_EES5_SA_EES1_EENS7_INS7_IS5_S5_SA_EES5_SA_EEEEvRT_RKNS6_IT0_T1_S1_EE"
 "_ZN4arma10eglue_coreINS_10eglue_plusEE5applyINS_3MatIdEENS_5eGlueIS5_NS_4GlueINS7_INS7_IS5_NS_11subview_colIdEENS_10glue_timesEEENS_2OpIS9_NS_9op_htransEEESA_EES5_SA_EES1_EENS7_INS7_IS5_S5_SA_EES5_SA_EEEEvRT_RKNS6_IT0_T1_S1_EE"
 "_ZN4arma10glue_times5applyIdLb0ELb0ELb0ENS_3MatIdEENS_3ColIdEEEEvRNS2_IT_EERKT3_RKT4_S6_"
 "_ZN4arma10glue_times5applyIdLb0ELb0ELb0ENS_3MatIdEES3_EEvRNS2_IT_EERKT3_RKT4_S4_"
 "_ZN4arma10glue_times5applyIdLb0ELb0ELb1ELb0ELb0ENS_3MatIdEENS_3ColIdEES5_S3_EEvRNS2_IT_EERKT5_RKT6_RKT7_RKT8_S6_"
 "_ZN4arma10glue_times5applyIdLb0ELb0ELb1ELb0ELb1ENS_3MatIdEENS_3ColIdEES5_S3_EEvRNS2_IT_EERKT5_RKT6_RKT7_RKT8_S6_"
 "_ZN4arma10glue_times5applyIdLb0ELb1ELb0ENS_3ColIdEES3_EEvRNS_3MatIT_EERKT3_RKT4_S5_"
 "_ZN4arma10glue_times5applyIdLb0ELb1ELb0ENS_3MatIdEENS_3ColIdEEEEvRNS2_IT_EERKT3_RKT4_S6_"
 "_ZN4arma10glue_times5applyIdLb0ELb1ELb1ENS_3ColIdEES3_EEvRNS_3MatIT_EERKT3_RKT4_S5_"
 "_ZN4arma10op_reshape5applyINS_11subview_colIdEEEEvRNS_3MatINT_9elem_typeEEERKNS_2OpIS5_S0_EE"
 "_ZN4arma10op_reshape5applyINS_4GlueINS_2OpINS_5eGlueINS4_INS4_INS_3GenINS_3MatIdEENS_7gen_eyeEEENS3_INS2_IS7_S7_NS_9glue_kronEEENS_9op_htransEEENS_11eglue_minusEEENS3_ISB_NS_10op_htrans2EEESE_EESD_SE_EENS_6op_invEEENS3_IS7_NS_16op_vectorise_colEEENS_10glue_timesEEEEEvRNS6_INT_9elem_typeEEERKNS3_ISQ_S0_EE"
 "_ZN4arma10op_reshape5applyINS_4GlueINS_2OpINS_5eGlueINS4_INS_3GenINS_3MatIdEENS_7gen_eyeEEENS3_INS2_IS7_S7_NS_9glue_kronEEENS_9op_htransEEENS_11eglue_minusEEESD_SE_EENS_6op_invEEENS3_IS7_NS_16op_vectorise_colEEENS_10glue_timesEEEEEvRNS6_INT_9elem_typeEEERKNS3_ISN_S0_EE"
 "_ZN4arma11syrk_helper35inplace_copy_upper_tri_to_lower_triIdEEvRNS_3MatIT_EE"
 "_ZN4arma15gemm_emul_largeILb0ELb0ELb0ELb0EE5applyIdNS_3MatIdEES4_EEvRNS3_IT_EERKT0_RKT1_S5_S5_"
 "_ZN4arma16gemm_emul_tinysqILb0ELb0ELb0EE5applyIdNS_3ColIdEENS_3MatIdEEEEvRNS5_IT_EERKT0_RKT1_S7_S7_"
 "_ZN4arma16gemm_emul_tinysqILb0ELb0ELb0EE5applyIdNS_3MatIdEES4_EEvRNS3_IT_EERKT0_RKT1_S5_S5_"
 "_ZN4arma16gemv_emul_tinysqILb0ELb0ELb0EE5applyIdNS_3ColIdEEEEvPT_RKT0_PKS5_S5_S5_"
 "_ZN4arma16gemv_emul_tinysqILb0ELb0ELb0EE5applyIdNS_3MatIdEEEEvPT_RKT0_PKS5_S5_S5_"
 "_ZN4arma16gemv_emul_tinysqILb0ELb1ELb0EE5applyIdNS_3ColIdEEEEvPT_RKT0_PKS5_S5_S5_"
 "_ZN4arma16gemv_emul_tinysqILb0ELb1ELb0EE5applyIdNS_3MatIdEEEEvPT_RKT0_PKS5_S5_S5_"
 "_ZN4arma16gemv_emul_tinysqILb1ELb0ELb0EE5applyIdNS_3ColIdEEEEvPT_RKT0_PKS5_S5_S5_"
 "_ZN4arma16gemv_emul_tinysqILb1ELb0ELb0EE5applyIdNS_3MatIdEEEEvPT_RKT0_PKS5_S5_S5_"
 "_ZN4arma16gemv_emul_tinysqILb1ELb1ELb0EE5applyIdNS_3ColIdEEEEvPT_RKT0_PKS5_S5_S5_"
 "_ZN4arma16gemv_emul_tinysqILb1ELb1ELb0EE5applyIdNS_3MatIdEEEEvPT_RKT0_PKS5_S5_S5_"
 "_ZN4arma19glue_times_redirectILj4EE5applyINS_3MatIdEENS_11subview_colIdEENS_2OpIS6_NS_9op_htransEEES4_EEvRNS3_INT_9elem_typeEEERKNS_4GlueINSE_INSE_ISA_T0_NS_10glue_timesEEET1_SG_EET2_SG_EE"
 "_ZN4arma19glue_times_redirectILj4EE5applyINS_3eOpINS_3MatIdEENS_16eop_scalar_timesEEENS_11subview_colIdEENS_2OpIS9_NS_9op_htransEEES5_EEvRNS4_INT_9elem_typeEEERKNS_4GlueINSH_INSH_ISD_T0_NS_10glue_timesEEET1_SJ_EET2_SJ_EE"
 "_ZN4arma20Proxy_xtrans_defaultINS_2OpINS_4GlueINS_3MatIdEES4_NS_9glue_kronEEENS_9op_htransEEEED2Ev"
 "_ZN4arma27glue_times_redirect2_helperILb0EE5applyINS_3MatIdEENS_2OpIS4_NS_9op_htransEEEEEvRNS3_INT_9elem_typeEEERKNS_4GlueIS8_T0_NS_10glue_timesEEE"
 "_ZN4arma27glue_times_redirect3_helperILb0EE5applyINS_3MatIdEES4_S4_EEvRNS3_INT_9elem_typeEEERKNS_4GlueINS9_IS5_T0_NS_10glue_timesEEET1_SB_EE"
 "_ZN4arma3MatIdE10soft_resetEv"
 "_ZN4arma3MatIdE5resetEv"
 "_ZN4arma3MatIdE9init_coldEv"
 "_ZN4arma3MatIdE9init_warmEjj"
 "_ZN4arma3MatIdE9steal_memERS1_"
 "_ZN4arma3MatIdEC1ERKS1_"
 "_ZN4arma3MatIdEC1IS1_NS_9op_htransEEERKNS_2OpIT_T0_EE"
 "_ZN4arma4gemvILb0ELb0ELb0EE15apply_blas_typeIdNS_3MatIdEEEEvPT_RKT0_PKS5_S5_S5_"
 "_ZN4arma4syrkILb0ELb0ELb0EE15apply_blas_typeIdNS_3MatIdEEEEvRNS3_IT_EERKT0_S5_S5_"
 "_ZN4arma5DatumIdE3nanE"
 "_ZN4arma5ProxyINS_2OpINS_4GlueINS_3MatIdEES4_NS_9glue_kronEEENS_9op_htransEEEEC1ERKS8_"
 "_ZN4arma5ProxyINS_4GlueINS1_INS1_INS_3MatIdEENS_11subview_colIdEENS_10glue_timesEEENS_2OpIS5_NS_9op_htransEEES6_EES3_S6_EEED1Ev"
 "_ZN4arma5ProxyINS_4GlueINS1_INS_3MatIdEES3_NS_10glue_timesEEES3_S4_EEED1Ev"
 "_ZN4arma6auxlib17solve_square_tinyINS_3MatIdEEEEbRNS2_INT_9elem_typeEEERKS6_RKNS_4BaseIS5_S4_EE"
 "_ZN4arma6op_det10apply_tinyIdEET_RKNS_3MatIS2_EE"
 "_ZN4arma6op_dot10direct_dotIdEENS_14arma_real_onlyIT_E6resultEjPKS3_S7_"
 "_ZN4arma6op_inv18apply_tiny_noaliasIdEEbRNS_3MatIT_EERKS4_"
 "_ZN4arma7subviewIdE10inplace_opINS_15op_internal_equENS_3eOpINS_3MatIdEENS_16eop_scalar_timesEEEEEvRKNS_4BaseIdT0_EEPKc"
 "_ZN4arma7subviewIdE10inplace_opINS_15op_internal_equENS_4GlueINS_3MatIdEENS_11subview_colIdEENS_10glue_timesEEEEEvRKNS_4BaseIdT0_EEPKc"
 "_ZN4arma8arma_rng5randnIdE4fillEPdj"
 "_ZN4arma8arrayops10copy_smallIdEEvPT_PKS2_j"
 "_ZN4arma9glue_kron11direct_kronIdEEvRNS_3MatIT_EERKS4_S7_"
 "_ZN4arma9op_strans12apply_directINS_2OpINS_3MatIdEENS_7op_cholEEEEEvRNS3_INT_9elem_typeEEERKS7_"
 "_ZN4arma9op_strans17apply_mat_noaliasIdNS_3MatIdEEEEvRNS2_IT_EERKT0_"
 "_ZN4arma9op_strans24apply_mat_noalias_tinysqIdNS_3ColIdEEEEvRNS_3MatIT_EERKT0_"
 "_ZN4arma9op_strans24apply_mat_noalias_tinysqIdNS_3MatIdEEEEvRNS2_IT_EERKT0_"
 "_ZN4arma9syrk_emulILb1ELb0ELb0EE5applyIdNS_3MatIdEEEEvRNS3_IT_EERKT0_S5_S5_"
 "_ZNSt19normal_distributionIdEclISt23mersenne_twister_engineIyLy64ELy312ELy156ELy31ELy13043109905998158313ELy29ELy6148914691236517205ELy17ELy8202884508482404352ELy37ELy18444473444759240704ELy43ELy6364136223846793005EEEEdRT_RKNS0_10param_typeE"
 "_ZTCN4Rcpp8RostreamILb0EEE0_So"
 "_ZTCN4Rcpp8RostreamILb1EEE0_So"
 "_ZTIN4Rcpp10RstreambufILb0EEE"
 "_ZTIN4Rcpp10RstreambufILb1EEE"
 "_ZTIN4Rcpp8RostreamILb0EEE"
 "_ZTIN4Rcpp8RostreamILb1EEE"
 "_ZTISt11logic_error"
 "_ZTISt12out_of_range"
 "_ZTISt13runtime_error"
 "_ZTISt9bad_alloc"
 "_ZTISt9exception"
 "_ZTSN4Rcpp10RstreambufILb0EEE"
 "_ZTSN4Rcpp10RstreambufILb1EEE"
 "_ZTSN4Rcpp8RostreamILb0EEE"
 "_ZTSN4Rcpp8RostreamILb1EEE"
 "_ZTSSt11logic_error"
 "_ZTSSt12out_of_range"
 "_ZTSSt13runtime_error"
 "_ZTSSt9bad_alloc"
 "_ZTSSt9exception"
 "_ZTTN4Rcpp8RostreamILb0EEE"
 "_ZTTN4Rcpp8RostreamILb1EEE"
 "_ZTVN4Rcpp10RstreambufILb0EEE"
 "_ZTVN4Rcpp10RstreambufILb1EEE"
 "_ZTVN4Rcpp8RostreamILb0EEE"
 "_ZTVN4Rcpp8RostreamILb1EEE"
 "_ZTv0_n24_N4Rcpp8RostreamILb0EED0Ev"
 "_ZTv0_n24_N4Rcpp8RostreamILb0EED1Ev"
 "_ZTv0_n24_N4Rcpp8RostreamILb1EED0Ev"
 "_ZTv0_n24_N4Rcpp8RostreamILb1EED1Ev"
 "_ZZN4arma16arma_cerr_streamIcEERSoPSoE11cerr_stream"
 "_Z17indicatorFunctionN4arma3MatIdEES1_"
 "_ZGVN4arma5DatumIdE3nanE"
 "_ZN4Rcpp10RstreambufILb0EE4syncEv"
 "_ZN4Rcpp10RstreambufILb0EE6xsputnEPKcx"
 "_ZN4Rcpp10RstreambufILb0EE8overflowEi"
 "_ZN4Rcpp10RstreambufILb0EED0Ev"
 "_ZN4Rcpp10RstreambufILb0EED1Ev"
 "_ZN4Rcpp10RstreambufILb1EE4syncEv"
 "_ZN4Rcpp10RstreambufILb1EE6xsputnEPKcx"
 "_ZN4Rcpp10RstreambufILb1EE8overflowEi"
 "_ZN4Rcpp10RstreambufILb1EED0Ev"
 "_ZN4Rcpp10RstreambufILb1EED1Ev"
 "_ZN4Rcpp8RostreamILb0EED0Ev"
 "_ZN4Rcpp8RostreamILb0EED1Ev"
 "_ZN4Rcpp8RostreamILb1EED0Ev"
 "_ZN4Rcpp8RostreamILb1EED1Ev"
 "_ZN4arma3MatIdE9init_warmEjj"
 "_ZN4arma5DatumIdE3nanE"
 "_ZN4arma8arrayops10copy_smallIdEEvPT_PKS2_j"
 "_ZN4arma9op_strans24apply_mat_noalias_tinysqIdNS_3MatIdEEEEvRNS2_IT_EERKT0_"
 "_ZTCN4Rcpp8RostreamILb0EEE0_So"
 "_ZTCN4Rcpp8RostreamILb1EEE0_So"
 "_ZTIN4Rcpp10RstreambufILb0EEE"
 "_ZTIN4Rcpp10RstreambufILb1EEE"
 "_ZTIN4Rcpp8RostreamILb0EEE"
 "_ZTIN4Rcpp8RostreamILb1EEE"
 "_ZTISt11logic_error"
 "_ZTISt12out_of_range"
 "_ZTISt9bad_alloc"
 "_ZTISt9exception"
 "_ZTSN4Rcpp10RstreambufILb0EEE"
 "_ZTSN4Rcpp10RstreambufILb1EEE"
 "_ZTSN4Rcpp8RostreamILb0EEE"
 "_ZTSN4Rcpp8RostreamILb1EEE"
 "_ZTSSt11logic_error"
 "_ZTSSt12out_of_range"
 "_ZTSSt9bad_alloc"
 "_ZTSSt9exception"
 "_ZTTN4Rcpp8RostreamILb0EEE"
 "_ZTTN4Rcpp8RostreamILb1EEE"
 "_ZTVN4Rcpp10RstreambufILb0EEE"
 "_ZTVN4Rcpp10RstreambufILb1EEE"
 "_ZTVN4Rcpp8RostreamILb0EEE"
 "_ZTVN4Rcpp8RostreamILb1EEE"
 "_ZTv0_n24_N4Rcpp8RostreamILb0EED0Ev"
 "_ZTv0_n24_N4Rcpp8RostreamILb0EED1Ev"
 "_ZTv0_n24_N4Rcpp8RostreamILb1EED0Ev"
 "_ZTv0_n24_N4Rcpp8RostreamILb1EED1Ev"
 "_ZZN4arma16arma_cerr_streamIcEERSoPSoE11cerr_stream"
 "R_init_BEKKs"
 "_BEKKs_YLagCr"
 "_BEKKs_bhh_asymm_bekk"
 "_BEKKs_bhh_bekk"
 "_BEKKs_bhh_scalar_bekk"
 "_BEKKs_commutation_mat"
 "_BEKKs_duplication_mat"
 "_BEKKs_eigen_value_decomposition"
 "_BEKKs_elimination_mat"
 "_BEKKs_expected_indicator_value"
 "_BEKKs_hesse_asymm_bekk"
 "_BEKKs_hesse_bekk"
 "_BEKKs_hesse_scalar_bekk"
 "_BEKKs_indicatorFunction"
 "_BEKKs_inv_gen"
 "_BEKKs_loglike_asymm_bekk"
 "_BEKKs_loglike_bekk"
 "_BEKKs_loglike_scalar_bekk"
 "_BEKKs_random_grid_search_BEKK"
 "_BEKKs_random_grid_search_asymmetric_BEKK"
 "_BEKKs_score_asymm_bekk"
 "_BEKKs_score_bekk"
 "_BEKKs_score_scalar_bekk"
 "_BEKKs_set_seed"
 "_BEKKs_sigma_bekk"
 "_BEKKs_sigma_bekk_asymm"
 "_BEKKs_simulate_bekk_c"
 "_BEKKs_simulate_bekka_c"
 "_BEKKs_valid_asymm_bekk"
 "_BEKKs_valid_asymm_bekk_sim"
 "_BEKKs_valid_bekk"
 "_BEKKs_valid_scalar_bekk"
 "_Z15bhh_scalar_bekkRN4arma3MatIdEERKS1_RiRd"
 "_Z17hesse_scalar_bekkN4arma3MatIdEES1_"
 "_Z17score_scalar_bekkRKN4arma3MatIdEERS1_"
 "_Z17valid_scalar_bekkdd"
 "_Z19loglike_scalar_bekkRKN4arma3ColIdEERKNS_3MatIdEE"
 "_Z7dataptrP7SEXPREC"
 "_ZGVN4arma5DatumIdE3infE"
 "_ZGVN4arma5DatumIdE3nanE"
 "_ZGVZ7dataptrP7SEXPRECE3fun"
 "_ZGVZN4Rcpp20Rcpp_precious_removeEP7SEXPRECE3fun"
 "_ZGVZN4Rcpp22Rcpp_precious_preserveEP7SEXPRECE3fun"
 "_ZN4Rcpp10RstreambufILb0EE4syncEv"
 "_ZN4Rcpp10RstreambufILb0EE6xsputnEPKcx"
 "_ZN4Rcpp10RstreambufILb0EE8overflowEi"
 "_ZN4Rcpp10RstreambufILb0EED0Ev"
 "_ZN4Rcpp10RstreambufILb0EED1Ev"
 "_ZN4Rcpp10RstreambufILb1EE4syncEv"
 "_ZN4Rcpp10RstreambufILb1EE6xsputnEPKcx"
 "_ZN4Rcpp10RstreambufILb1EE8overflowEi"
 "_ZN4Rcpp10RstreambufILb1EED0Ev"
 "_ZN4Rcpp10RstreambufILb1EED1Ev"
 "_ZN4Rcpp13RcppArmadillo9arma_wrapIN4arma3ColIdEEEEP7SEXPRECRKT_RKNS_9DimensionE"
 "_ZN4Rcpp13RcppArmadillo9arma_wrapIN4arma3MatIdEEEEP7SEXPRECRKT_RKNS_9DimensionE"
 "_ZN4Rcpp20AttributeProxyPolicyINS_12RObject_ImplINS_15PreserveStorageEEEE14AttributeProxyaSINS_9DimensionEEERS5_RKT_"
 "_ZN4Rcpp20Rcpp_precious_removeEP7SEXPREC"
 "_ZN4Rcpp4wrapIdEEP7SEXPRECRKN4arma3MatIT_EE"
 "_ZN4Rcpp8RostreamILb0EED0Ev"
 "_ZN4Rcpp8RostreamILb0EED1Ev"
 "_ZN4Rcpp8RostreamILb1EED0Ev"
 "_ZN4Rcpp8RostreamILb1EED1Ev"
 "_ZN4Rcpp8internal34primitive_range_wrap__impl__nocastIPKddEEP7SEXPRECT_S6_St26random_access_iterator_tag"
 "_ZN4arma10eglue_coreINS_10eglue_plusEE5applyINS_3MatIdEENS_5eGlueINS6_INS6_INS_4GlueIS5_S5_NS_10glue_timesEEENS7_INS7_IS9_S5_S8_EES5_S8_EENS_11eglue_minusEEENS7_INS7_INS7_INS7_INS7_INS7_INS_2OpINS_11subview_rowIdEENS_9op_htransEEESG_S8_EES5_S8_EES5_S8_EES5_S8_EES5_S8_EES5_S8_EES1_EESM_SC_EESO_EEvRT_RKNS6_IT0_T1_S1_EE"
 "_ZN4arma10eglue_coreINS_11eglue_minusEE5applyINS_3MatIdEENS_4GlueIS5_S5_NS_10glue_timesEEENS6_INS6_INS6_INS6_INS_2OpINS_11subview_rowIdEENS_9op_htransEEESB_S7_EES5_S7_EES5_S7_EES5_S7_EEEEvRT_RKNS_5eGlueIT0_T1_S1_EE"
 "_ZN4arma10glue_times5applyIdLb0ELb0ELb0ELb0ELb0ENS_3MatIdEES3_S3_S3_EEvRNS2_IT_EERKT5_RKT6_RKT7_RKT8_S4_"
 "_ZN4arma10glue_times5applyIdLb0ELb0ELb0ENS_3MatIdEES3_EEvRNS2_IT_EERKT3_RKT4_S4_"
 "_ZN4arma10glue_times5applyIdLb0ELb1ELb1ENS_3MatIdEES3_EEvRNS2_IT_EERKT3_RKT4_S4_"
 "_ZN4arma10glue_times5applyIdLb1ELb0ELb0ELb0ELb0ENS_3RowIdEES3_NS_3MatIdEES5_EEvRNS4_IT_EERKT5_RKT6_RKT7_RKT8_S6_"
 "_ZN4arma10glue_times5applyIdLb1ELb0ELb0ENS_3MatIdEES3_EEvRNS2_IT_EERKT3_RKT4_S4_"
 "_ZN4arma10glue_times5applyIdLb1ELb0ELb0ENS_3RowIdEENS_3MatIdEEEEvRNS4_IT_EERKT3_RKT4_S6_"
 "_ZN4arma10glue_times5applyIdLb1ELb0ELb0ENS_3RowIdEES3_EEvRNS_3MatIT_EERKT3_RKT4_S5_"
 "_ZN4arma11syrk_helper35inplace_copy_upper_tri_to_lower_triIdEEvRNS_3MatIT_EE"
 "_ZN4arma12sympd_helper18guess_sympd_workerIdEENS_10enable_if2IXsrNS_5is_cxIT_EE2noEbE6resultERKNS_3MatIS4_EE"
 "_ZN4arma15gemm_emul_largeILb0ELb0ELb0ELb0EE5applyIdNS_3MatIdEES4_EEvRNS3_IT_EERKT0_RKT1_S5_S5_"
 "_ZN4arma16gemm_emul_tinysqILb1ELb1ELb0EE5applyIdNS_3RowIdEES4_EEvRNS_3MatIT_EERKT0_RKT1_S6_S6_"
 "_ZN4arma16gemv_emul_tinysqILb0ELb0ELb0EE5applyIdNS_3MatIdEEEEvPT_RKT0_PKS5_S5_S5_"
 "_ZN4arma16gemv_emul_tinysqILb0ELb1ELb0EE5applyIdNS_3MatIdEEEEvPT_RKT0_PKS5_S5_S5_"
 "_ZN4arma16gemv_emul_tinysqILb1ELb0ELb0EE5applyIdNS_3MatIdEEEEvPT_RKT0_PKS5_S5_S5_"
 "_ZN4arma16gemv_emul_tinysqILb1ELb0ELb0EE5applyIdNS_3RowIdEEEEvPT_RKT0_PKS5_S5_S5_"
 "_ZN4arma16gemv_emul_tinysqILb1ELb1ELb0EE5applyIdNS_3RowIdEEEEvPT_RKT0_PKS5_S5_S5_"
 "_ZN4arma17accu_proxy_linearINS_8diagviewIdEEEENT_9elem_typeERKNS_5ProxyIS3_EE"
 "_ZN4arma19glue_times_redirectILj4EE5applyINS_3MatIdEES4_S4_S4_EEvRNS3_INT_9elem_typeEEERKNS_4GlueINS9_INS9_IS5_T0_NS_10glue_timesEEET1_SB_EET2_SB_EE"
 "_ZN4arma19glue_times_redirectILj5EE5applyINS_4GlueINS3_INS3_INS_2OpINS_11subview_rowIdEENS_9op_htransEEES6_NS_10glue_timesEEENS_3MatIdEES9_EESC_S9_EESC_EEvRNSB_INT_9elem_typeEEERKNS3_ISF_T0_S9_EE"
 "_ZN4arma19glue_times_redirectILj7EE5applyINS_4GlueINS3_INS3_INS3_INS3_INS_2OpINS_11subview_rowIdEENS_9op_htransEEES6_NS_10glue_timesEEENS_3MatIdEES9_EESC_S9_EESC_S9_EESC_S9_EESC_EEvRNSB_INT_9elem_typeEEERKNS3_ISH_T0_S9_EE"
 "_ZN4arma27glue_times_redirect2_helperILb0EE5applyINS_2OpINS_11subview_rowIdEENS_10op_htrans2EEES5_EEvRNS_3MatINT_9elem_typeEEERKNS_4GlueIS9_T0_NS_10glue_timesEEE"
 "_ZN4arma27glue_times_redirect2_helperILb0EE5applyINS_2OpINS_11subview_rowIdEENS_9op_htransEEES5_EEvRNS_3MatINT_9elem_typeEEERKNS_4GlueIS9_T0_NS_10glue_timesEEE"
 "_ZN4arma27glue_times_redirect2_helperILb0EE5applyINS_2OpINS_3MatIdEENS_9op_htransEEES5_EEvRNS4_INT_9elem_typeEEERKNS_4GlueIS8_T0_NS_10glue_timesEEE"
 "_ZN4arma27glue_times_redirect2_helperILb0EE5applyINS_3MatIdEES4_EEvRNS3_INT_9elem_typeEEERKNS_4GlueIS5_T0_NS_10glue_timesEEE"
 "_ZN4arma27glue_times_redirect3_helperILb1EE5applyINS_11subview_rowIdEENS_2OpINS_3MatIdEENS_6op_invEEENS5_IS4_NS_9op_htransEEEEEvRNS6_INT_9elem_typeEEERKNS_4GlueINSG_ISC_T0_NS_10glue_timesEEET1_SI_EE"
 "_ZN4arma3MatIdE10soft_resetEv"
 "_ZN4arma3MatIdE4initERKNSt7__cxx1112basic_stringIcSt11char_traitsIcESaIcEEE"
 "_ZN4arma3MatIdE5resetEv"
 "_ZN4arma3MatIdE9init_coldEv"
 "_ZN4arma3MatIdE9init_warmEjj"
 "_ZN4arma3MatIdE9steal_memERS1_"
 "_ZN4arma3MatIdEC1EPKc"
 "_ZN4arma3MatIdEC1ERKS1_"
 "_ZN4arma3MatIdEC1INS_5eGlueINS3_INS3_INS_4GlueIS1_S1_NS_10glue_timesEEENS4_INS4_IS6_S1_S5_EES1_S5_EENS_11eglue_minusEEENS4_INS4_INS4_INS4_INS4_INS4_INS_2OpINS_11subview_rowIdEENS_9op_htransEEESD_S5_EES1_S5_EES1_S5_EES1_S5_EES1_S5_EES1_S5_EENS_10eglue_plusEEESJ_S9_EESL_SM_EERKNS3_IT_T0_T1_EE"
 "_ZN4arma3MatIdEaSERKNS_7subviewIdEE"
 "_ZN4arma3MatIdEaSINS_3eOpIS1_NS_16eop_scalar_timesEEES1_NS_10eglue_plusEEERS1_RKNS_5eGlueIT_T0_T1_EE"
 "_ZN4arma3MatIdEaSINS_3eOpIS1_NS_16eop_scalar_timesEEES5_NS_10eglue_plusEEERS1_RKNS_5eGlueIT_T0_T1_EE"
 "_ZN4arma3MatIdEaSINS_5eGlueINS3_INS3_INS_4GlueIS1_S1_NS_10glue_timesEEENS4_INS4_IS6_S1_S5_EES1_S5_EENS_11eglue_minusEEENS4_INS4_INS4_INS4_INS4_INS4_INS_2OpINS_11subview_rowIdEENS_9op_htransEEESD_S5_EES1_S5_EES1_S5_EES1_S5_EES1_S5_EES1_S5_EENS_10eglue_plusEEESJ_S9_EESL_SM_EERS1_RKNS3_IT_T0_T1_EE"
 "_ZN4arma3MatIdEaSINS_5eGlueINS_3eOpIS1_NS_16eop_scalar_timesEEENS_4GlueINS_2OpINS_11subview_rowIdEENS_10op_htrans2EEESA_NS_10glue_timesEEENS_10eglue_plusEEES6_SF_EERS1_RKNS3_IT_T0_T1_EE"
 "_ZN4arma3MatIdEaSINS_5eGlueINS_4GlueINS_2OpINS_11subview_rowIdEENS_9op_htransEEES7_NS_10glue_timesEEES1_NS_11eglue_minusEEENS_3eOpIS1_NS_16eop_scalar_timesEEENS_10eglue_plusEEERS1_RKNS3_IT_T0_T1_EE"
 "_ZN4arma3MatIdEaSINS_5eGlueIS1_S1_NS_11eglue_minusEEENS_3eOpIS1_NS_16eop_scalar_timesEEENS_10eglue_plusEEERS1_RKNS3_IT_T0_T1_EE"
 "_ZN4arma3MatIdEaSIS1_NS_16eop_scalar_timesEEERS1_RKNS_3eOpIT_T0_EE"
 "_ZN4arma4gemvILb1ELb0ELb0EE15apply_blas_typeIdNS_3MatIdEEEEvPT_RKT0_PKS5_S5_S5_"
 "_ZN4arma4gemvILb1ELb0ELb0EE15apply_blas_typeIdNS_3RowIdEEEEvPT_RKT0_PKS5_S5_S5_"
 "_ZN4arma4syrkILb1ELb0ELb0EE15apply_blas_typeIdNS_3RowIdEEEEvRNS_3MatIT_EERKT0_S6_S6_"
 "_ZN4arma5DatumIdE3infE"
 "_ZN4arma5DatumIdE3nanE"
 "_ZN4arma5ProxyINS_4GlueINS1_INS1_INS1_INS1_INS1_INS_2OpINS_11subview_rowIdEENS_9op_htransEEES4_NS_10glue_timesEEENS_3MatIdEES7_EESA_S7_EESA_S7_EESA_S7_EESA_S7_EEEC1ERKSF_"
 "_ZN4arma5ProxyINS_4GlueINS1_INS1_INS1_INS1_INS1_INS_2OpINS_11subview_rowIdEENS_9op_htransEEES4_NS_10glue_timesEEENS_3MatIdEES7_EESA_S7_EESA_S7_EESA_S7_EESA_S7_EEED1Ev"
 "_ZN4arma5ProxyINS_4GlueINS1_INS1_INS1_INS_2OpINS_11subview_rowIdEENS_9op_htransEEES4_NS_10glue_timesEEENS_3MatIdEES7_EESA_S7_EESA_S7_EEEC1ERKSD_"
 "_ZN4arma5ProxyINS_4GlueINS1_INS1_INS1_INS_2OpINS_11subview_rowIdEENS_9op_htransEEES4_NS_10glue_timesEEENS_3MatIdEES7_EESA_S7_EESA_S7_EEED1Ev"
 "_ZN4arma5ProxyINS_4GlueINS1_INS1_INS_3MatIdEES3_NS_10glue_timesEEES3_S4_EES3_S4_EEED1Ev"
 "_ZN4arma5ProxyINS_4GlueINS_2OpINS_11subview_rowIdEENS_10op_htrans2EEES4_NS_10glue_timesEEEED1Ev"
 "_ZN4arma5ProxyINS_4GlueINS_3MatIdEES3_NS_10glue_timesEEEEC1ERKS5_"
 "_ZN4arma5ProxyINS_4GlueINS_3MatIdEES3_NS_10glue_timesEEEED1Ev"
 "_ZN4arma6auxlib17solve_square_tinyINS_3MatIdEEEEbRNS2_INT_9elem_typeEEERKS6_RKNS_4BaseIS5_S4_EE"
 "_ZN4arma6auxlib3invIdEEbRNS_3MatIT_EE"
 "_ZN4arma6diskio13convert_tokenIdEEbRT_RKNSt7__cxx1112basic_stringIcSt11char_traitsIcESaIcEEE"
 "_ZN4arma6op_det10apply_tinyIdEET_RKNS_3MatIS2_EE"
 "_ZN4arma6op_dot10direct_dotIdEENS_14arma_real_onlyIT_E6resultEjPKS3_S7_"
 "_ZN4arma6op_inv12apply_directINS_3MatIdEEEEbRNS2_INT_9elem_typeEEERKNS_4BaseIS5_S4_EEPKc"
 "_ZN4arma6op_inv12apply_directINS_4GlueINS_2OpINS_3MatIdEENS_9op_htransEEES5_NS_10glue_timesEEEEEbRNS4_INT_9elem_typeEEERKNS_4BaseISB_SA_EEPKc"
 "_ZN4arma6op_inv13apply_diagmatINS_3MatIdEEEEbRNS2_INT_9elem_typeEEERKS4_PKc"
 "_ZN4arma6op_inv18apply_tiny_noaliasIdEEbRNS_3MatIT_EERKS4_"
 "_ZN4arma6op_sum20apply_noalias_unwrapINS_3MatIdEEEEvRNS2_INT_9elem_typeEEERKNS_5ProxyIS4_EEj"
 "_ZN4arma7subviewIdE7extractERNS_3MatIdEERKS1_"
 "_ZN4arma8arrayops10copy_smallIdEEvPT_PKS2_j"
 "_ZN4arma8eop_coreINS_16eop_scalar_timesEE5applyINS_3MatIdEES5_EEvRT_RKNS_3eOpIT0_S1_EE"
 "_ZN4arma8eop_coreINS_8eop_sqrtEE5applyINS_3MatIdEENS_8diagviewIdEEEEvRT_RKNS_3eOpIT0_S1_EE"
 "_ZN4arma9op_strans11apply_proxyINS_11subview_rowIdEEEEvRNS_3MatINT_9elem_typeEEERKNS_5ProxyIS5_EE"
 "_ZN4arma9op_strans23apply_mat_noalias_largeIdEEvRNS_3MatIT_EERKS4_"
 "_ZN4arma9op_strans24apply_mat_noalias_tinysqIdNS_3MatIdEEEEvRNS2_IT_EERKT0_"
 "_ZN4arma9op_trimat12apply_unwrapIdEEvRNS_3MatIT_EERKS4_b"
 "_ZNSt7__cxx1112basic_stringIcSt11char_traitsIcESaIcEE12_M_constructIPKcEEvT_S8_St20forward_iterator_tag"
 "_ZNSt7__cxx1112basic_stringIcSt11char_traitsIcESaIcEE12_M_constructIPcEEvT_S7_St20forward_iterator_tag"
 "_ZTCN4Rcpp8RostreamILb0EEE0_So"
 "_ZTCN4Rcpp8RostreamILb1EEE0_So"
 "_ZTIN4Rcpp10RstreambufILb0EEE"
 "_ZTIN4Rcpp10RstreambufILb1EEE"
 "_ZTIN4Rcpp8RostreamILb0EEE"
 "_ZTIN4Rcpp8RostreamILb1EEE"
 "_ZTISt11logic_error"
 "_ZTISt12out_of_range"
 "_ZTISt13runtime_error"
 "_ZTISt9bad_alloc"
 "_ZTISt9exception"
 "_ZTSN4Rcpp10RstreambufILb0EEE"
 "_ZTSN4Rcpp10RstreambufILb1EEE"
 "_ZTSN4Rcpp8RostreamILb0EEE"
 "_ZTSN4Rcpp8RostreamILb1EEE"
 "_ZTSSt11logic_error"
 "_ZTSSt12out_of_range"
 "_ZTSSt13runtime_error"
 "_ZTSSt9bad_alloc"
 "_ZTSSt9exception"
 "_ZTTN4Rcpp8RostreamILb0EEE"
 "_ZTTN4Rcpp8RostreamILb1EEE"
 "_ZTVN4Rcpp10RstreambufILb0EEE"
 "_ZTVN4Rcpp10RstreambufILb1EEE"
 "_ZTVN4Rcpp8RostreamILb0EEE"
 "_ZTVN4Rcpp8RostreamILb1EEE"
 "_ZTv0_n24_N4Rcpp8RostreamILb0EED0Ev"
 "_ZTv0_n24_N4Rcpp8RostreamILb0EED1Ev"
 "_ZTv0_n24_N4Rcpp8RostreamILb1EED0Ev"
 "_ZTv0_n24_N4Rcpp8RostreamILb1EED1Ev"
 "_ZZ7dataptrP7SEXPRECE3fun"
 "_ZZN4Rcpp20Rcpp_precious_removeEP7SEXPRECE3fun"
 "_ZZN4Rcpp22Rcpp_precious_preserveEP7SEXPRECE3fun"
 "_ZZN4arma16arma_cerr_streamIcEERSoPSoE11cerr_stream"
 "_Z6YLagCrN4arma3MatIdEEi"
